

  Address         Publics by Value

 0001:80003100       memset
 0001:80003130       __fill_mem
 0001:800031F4       memcpy
 0001:80003244       TRK_memcpy
 0001:80003268       TRK_memset
 0001:80003298       aMetrowerksTarg
 0001:80003398       gTRKInterruptVectorTable
 0001:800051CC       __TRK_reset
 0001:800051EC       __check_pad3
 0001:8000521C       start
 0001:8000522C       __start
 0001:80005364       __init_registers
 0001:80005380       __init_data
 0001:80005440       __init_hardware
 0001:80005460       __flush_cache
 0001:80005494       _rom_copy_info
 0001:800055DC       _eti_init_info
 0001:80005600       main
 0001:80005644       __sinit_main_cpp
 0001:8000566C       __dt__11TBoidLeaderFv
 0001:800056E0       calcForces__11TBoidLeaderCFPC5TBoid
 0001:80005A54       inv_sqrt__Q29JGeometry8TUtil<f>f
 0001:80005A88       scale__Q29JGeometry8TVec3<f>Ff
 0001:80005AB0       calcGoalForce__11TBoidLeaderCFRCQ29JGeometry8TVec3<f>
 0001:800067E8       sqrt__Q29JGeometry8TUtil<f>Ff
 0001:80006820       dot__Q29JGeometry8TVec3<f>CFRCQ29JGeometry8TVec3<f>
 0001:80006890       div__Q29JGeometry8TVec3<f>f
 0001:800068C0       __ct__11TBoidLeaderiPCc
 0001:80006A2C       __dt__9TPathNodeFv
 0001:80006A6C       __dt__Q26JDrama8TViewObjFv
 0001:80006AD0       __ct__5TBoidFv
 0001:80006BC4       restoreDrawBuffer__13TEnemyManagerFUl
 0001:80006BC8       changeDrawBuffer__13TEnemyManagerFUl
 0001:80006C3C       createRealoidActor__8TFishoidP6MActor
 0001:80006CEC       __dt__13TRealoidActor
 0001:80006D88       __ct__Q29JGeometry38TMatrix34<Q29JGeometry13SMatrix34C<f>>Fv
 0001:80006D8C       __dt__10TTakeActor
 0001:80006E10       __dt__9THitActorFv
 0001:800071CC       __dt__24TNerveBase<10TLiveActor>v
 0001:800073A0       __ct__8TFishoidFiPCc
 0001:80007898       __ct__8TRealoidFPCc
 0001:800078F8       checkHitActors__13TRealoidActorFv
 0001:80007C80       __ct__13TRealoidActorP6MActor
 0001:80007CFC       ensureTakeSituation__10TTakeActorFv
 0001:80007D40       moveRequest__10TTakeActorFRCQ29JGeometry8TVec3<f>
 0001:80007D60       getRadiusAtY__10TTakeActorFCf
 0001:80007D68       receiveMessage__9THitActorFP9THitActorUl
 0001:80007D70       getType__Q26JDrama6TActorCFv
 0001:80007DFC       getPhaseShift__11TSpineEnemyCFv
 0001:80007E04       isReachedToGoal__11TSpineEnemyCFv
 0001:80007FB8       __dt__11TAnimalBase
 0001:80008430       nullsub_8
 0001:80008C34       load__11TAnimalBaseFR20JSUMemoryInputStream
 0001:80008CD4       initNoLoad___11TAnimalBaseP11TAnimalBase
 0001:80008F5C       __ct__Q37JGadget36TList<Pv,Q27JGadget14TAllocator<Pv>>8iteratorFRCQ37JGadget36TList<Pv,Q27JGadget14TAllocator<Pv>>8iterator
 0001:80008F68       __ct__Q37JGadget36TList<Pv,Q27JGadget14TAllocator<Pv>>8iteratorFPQ37JGadget36TList<Pv,Q27JGadget14TAllocator<Pv>>6TNode_
 0001:80008F70       init__11TAnimalBaseFP12TLiveManager
 0001:80009200       __ct__11TAnimalBaseFUlPCc
 0001:8000947C       __sinit_AnimalBase_cpp
 0001:80009778       __dt__26JSUList<15JALSeModVolFunk>Fv
 0001:800097D0       __dt__26JSUList<15JALSeModPitFunk>Fv
 0001:80009828       __dt__26JSUList<15JALSeModEffFunk>Fv
 0001:80009FBC       __sinit_AnimalManager_cpp
 0001:8000A2B8       __ct__21TAnimalSaveIndividualPCc
 0001:8000B770       appear__11TMapObjBaseFv
 0001:8000C990       __ct__17TAnimalBirdParamsPCc
 0001:8000D44C       getLatestNerve__24TSpineBase<10TLiveActor>CFv
 0001:8000D560       __ct__24TNerveBase<10TLiveActor>Fv
 0001:8000E284       __ct__11TAnimalBirdFPCc
 0001:8000E424       __sinit_Bird_cpp
 0001:8000EC78       isWaterSurface__12TBGCheckDataCFv
 0001:8001059C       scale__Q29JGeometry8TVec4<f>FfRCQ29JGeometry8TVec4<f>
 0001:800105D0       dot__Q29JGeometry8TVec4<f>CFRCQ29JGeometry8TVec4<f>
 0001:80010CA0       subtract__Q29JGeometry8TVec3<f>FRCQ29JGeometry8TVec3<f>
 0001:800110FC       identity33__Q29JGeometry64TRotation3<Q29JGeometry38TMatrix34<Q29JGeometry13SMatrix34C<f>>>Fv
 0001:8001112C       __ct__Q29JGeometry13SMatrix34C<f>Fv
 0001:80011130       setRotate__Q29JGeometry9TQuat4<f>FRCQ29JGeometry8TVec3<f>RCQ29JGeometry8TVec3<f>f
 0001:8001128C       scale__Q29JGeometry8TVec3<f>fRCQ29JGeometry8TVec3<f>
 0001:80011518       receiveMessageFromChild__8TBeeHiveFP4TBee
 0001:80011E1C       __sinit_BeeHive_cpp
 0001:80012C80       startAnimSound__14MAnmSoundMarioPvUlPP8JAISoundP8JAIActorUc
 0001:80012D78       setSpeedModifySound__9MAnmSoundP8JAISoundP22JAIAnimeFrameSoundDataf
 0001:80012DF4       startAnimSound__9MAnmSoundPvUlPP8JAISoundP8JAIActorUc
 0001:80012E6C       animeLoop__9MAnmSoundP3VecffUlUc
 0001:80012EB0       initAnmSound__9MAnmSoundFPvUlf
 0001:80012ED0       __ct__9MAnmSoundFP6MSound
 0001:80013218       getSwitch__6MSoundFUlUlUl
 0001:80013278       getBstSwitch__6MSoundFUl
 0001:800132B4       gateCheck__6MSoundFUl
 0001:80013304       cameraLooksAtMario__6MSoundFv
 0001:8001335C       startSoundActorSpecial__6MSoundFUlPC3VecffUlPP8JAISoundUlUc
 0001:800134CC       startBeeSe__6MSoundFP3VecUl
 0001:8001367C       getWallSound__6MSoundFUlf
 0001:800136DC       checkMarioVoicePlaying__6MSoundFUc
 0001:80013700       stopMarioVoice__6MSoundFUlUc
 0001:80013770       getMarioVoiceID__6MSoundFUc
 0001:800137A8       startMarioVoice__6MSoundFUlsUc
 0001:8001389C       def_8001384C
 0001:80013E90       playTimer__6MSoundFUl
 0001:800140B8       stopAllSound__6MSoundFv
 0001:80014258       resetAudioAll__6MSoundFUs
 0001:800143E8       talkModeOut__6MSoundFv
 0001:80014530       talkModeIn__6MSoundFb
 0001:80014818       pauseOff__6MSoundFUc
 0001:80014A38       pauseOn__6MSoundFb
 0001:80014D1C       startSoundSet__6MSoundFUlPC3VecUlfUlUlUc
 0001:80014DA8       mainLoop__6MSoundFv
 0001:80014E70       __ct__6MSoundFP7JKRHeapP7JKRHeapUlPUcPUcUl
 0001:800151C8       getDistPowFromCamera__6MSoundFRC3Vec
 0001:80015250       getDistFromCamera__6MSoundFP3Vec
 0001:8001527C       setPlayerInfo__6MSoundFP3VecP3VecPA4_fb
 0001:80015500       exitStage__6MSoundFv
 0001:8001569C       loadWave__6MSoundF13MS_SCENE_WAVE
 0001:800157D8       makeSound__6MSoundFUl
 0001:80015DB4       setWaterCameraFir__12MSSeCallBackFb
 0001:8001624C       __sinit_MSound_cpp
 0001:80016548       setStageBgmYoshiPercussion__5MSBgmFb
 0001:800165FC       setDolby__5MSBgmFUcfUlUc
 0001:80016644       setPan__5MSBgmFUcfUlUc
 0001:8001668C       setVolume__5MSBgmFUlfUlUc
 0001:800166F8       setTrackVolume__5MSBgmFUcfUlUc
 0001:80016740       stopTrackBGMs__5MSBgmFUcUl
 0001:800167EC       stopTrackBGM__5MSBgmFUcUl
 0001:8001686C       stopBGM__5MSBgmFUlUl
 0001:8001694C       getHandle__5MSBgmFUc
 0001:80016978       startBGM__5MSBgmFUl
 0001:80016AC0       getSceneNo__5MSBgmFUl
 0001:80016C58       def_80016AE4
 0001:80016C60       init__5MSBgmFv
 0001:80016D44       search__19JALListS<5MSBgm,Ul>FUl
 0001:80017964       __ct__9MSSceneSEFUl
 0001:80017DDC       checkMonoSound__Q214MSoundSESystem8MSoundSEFUlP8JAIActor
 0001:80017EB0       startSoundNpcActor__Q214MSoundSESystem8MSoundSEFUlPC3VecUlPP8JAISoundUlUc
 0001:80017FC0       getNewIDBySurfaceCode__Q214MSoundSESystem8MSoundSEFUlP8JAIActor
 0001:800180D8       startSoundActorInner__Q214MSoundSESystem8MSoundSEFUlPP8JAISoundP8JAIActorUlUc
 0001:80018368       def_8001835C
 0001:800183B4       def_800183A8
 0001:80018498       checkSoundArea__Q214MSoundSESystem8MSoundSEFUlRC3Vec
 0001:800185F4       startSoundActorWithInfo__Q214MSoundSESystem8MSoundSEFUlPC3VecP3VecfUlUlPP8JAISoundUlUc
 0001:80018864       startSoundSystemSE__Q214MSoundSESystem8MSoundSEFUlUlPP8JAISoundUl
 0001:800189D4       startSoundActor__Q214MSoundSESystem8MSoundSEFUlPC3VecUlPP8JAISoundUlUc
 0001:80018A14       getRandomID__Q214MSoundSESystem8MSoundSEFUl
 0001:80018C80       construct__Q214MSoundSESystem8MSoundSEFv
 0001:80019F5C       __ct__10JSUPtrListFv
 0001:8001A1F0       startSeRandPlay__Q214MSoundSESystem10MSRandPlayFUlUl
 0001:8001A308       createRandPlayVec__Q214MSoundSESystem10MSRandPlayFUlUs
 0001:8001A3AC       registerTrans__Q214MSoundSESystem10MSRandPlayFUlPC3Vec
 0001:8001C988       def_8001C910
 0001:8001D67C       loop__8MSModBgmFv
 0001:8001D6B8       modBgm__8MSModBgmFUcUc
 0001:8001DAB0       PopDecodedAudioBuffer
 0001:8001DAF4       PushFreeAudioBuffer
 0001:8001DCF8       AudioDecodeThreadCancel
 0001:8001DD34       AudioDecodeThreadStart
 0001:8001DD68       CreateAudioDecodeThread
 0001:8001DE28       THPGXYuv2RgbDraw
 0001:8001E00C       THPGXYuv2RgbSetup
 0001:8001E4F0       THPGXRestore
 0001:8001E608       THPPlayerSetVolume
 0001:8001E744       MixAudio__FPsPsUl
 0001:8001E920       THPPlayerDrawDone
 0001:8001E994       THPPlayerGetState
 0001:8001E9A4       THPPlayerGetAudioInfo
 0001:8001E9EC       THPPlayerGetVideoInfo
 0001:8001EA34       THPPlayerDrawCurrentFrame
 0001:8001EB00       ProperTimingForGettingNextFrame__Fv
 0001:8001EC24       PlayControl__FUl
 0001:8001EEE8       THPPlayerPause
 0001:8001EF28       THPPlayerStop
 0001:8001F000       THPPlayerPlay
 0001:8001F05C       THPPlayerPrepare
 0001:8001F2CC       PrepareReady__Fi
 0001:8001F2FC       InitAllMessageQueue__Fv
 0001:8001F3CC       THPPlayerSetBuffer
 0001:8001F5FC       THPPlayerCalcNeedMemory
 0001:8001F6A4       THPPlayerClose
 0001:8001F6FC       THPPlayerOpen
 0001:8001F98C       THPPlayerQuit
 0001:8001F9C0       THPPlayerInit
 0001:8001FA88       audioCallbackWithMSound__Fl
 0001:8001FB3C       PushReadedBuffer2
 0001:8001FB6C       PopReadedBuffer2
 0001:8001FCF4       ReadThreadCancel
 0001:8001FD30       ReadThreadStart
 0001:8001FD64       CreateReadThread
 0001:8001FE00       PopDecodedTextureSet
 0001:8001FE44       PushFreeTextureSet
 0001:800201B4       VideoDecodeThreadCancel
 0001:800201F0       VideoDecodeThreadStart
 0001:80020224       CreateVideoDecodeThread
 0001:800202E8       execGroundCheck___15CPolarSubCameraF3Vec
 0001:80020438       execRoofCheck___15CPolarSubCameraF3Vec
 0001:8002057C       execWallCheck___15CPolarSubCameraFP3Vec
 0001:80020A9C       calcInHouseNo___15CPolarSubCameraFb
 0001:800210DC       __ct__Q29JGeometry8TVec3<f>
 0001:800210E0       CLBLinearInbetween<f>__Ffff
 0001:800210EC       CLBRoundf<s>__Ff
 0001:80021F1C       changeCamModeSpecifyCamMapToolAndFrame___15CPolarSubCameraFPC14TCameraMapTooli
 0001:80021F70       changeCamModeSpecifyCamMapTool___15CPolarSubCameraFPC14TCameraMapTool
 0001:80021FEC       changeCamModeSpecifyFrame___15CPolarSubCameraFii
 0001:80022494       def_80022448
 0001:80022738       setUpToLButtonCamera___15CPolarSubCameraFi
 0001:80022A78       def_80022830
 0001:80022A80       CLBCalcRatio<s>__Fsss
 0001:80022DE4       controlByCameraCode___15CPolarSubCameraFPi
 0001:80022F4C       __dt__15CPolarSubCameraFv
 0001:80022FD0       getType__Q26JDrama7TCameraCFv
 0001:80022FEC       getOffsetAngleY__15CPolarSubCameraCFv
 0001:80022FF8       getOffsetAngleX__15CPolarSubCameraCFv
 0001:80023004       perform__15CPolarSubCameraFUlPQ26JDrama9TGraphics
 0001:800233C8       MsClamp<f>__Ffff
 0001:800233E8       setLength__Q29JGeometry8TVec3<f>RCQ29JGeometry8TVec3<f>f
 0001:8002348C       one__Q29JGeometry8TUtil<f>Fv
 0001:800234A4       MsSqrtf__Ff
 0001:80023950       calcFinalPosAndAt___15CPolarSubCameraFv
 0001:80024D7C       checkStatusType__6TMarioCFl
 0001:800250D0       rotateX_ByStickY___15CPolarSubCameraFf
 0001:80025308       calcAngleXFromXRotRatio___15CPolarSubCameraCFv
 0001:800253A4       getToroccoMtx___15CPolarSubCameraCFv
 0001:800253DC       loadAfter__15CPolarSubCameraFv
 0001:80025C84       __ct__15CPolarSubCameraFPCc
 0001:800260C4       __dt__Q26JDrama13TLookAtCameraFv
 0001:80026130       __dt__Q26JDrama10TPlacement
 0001:800261A4       __ct__Q26JDrama8TViewObjFPCc
 0001:80026240       CLBLinearInbetween<s>__Fssf
 0001:8002645C       execHeightPan___15CPolarSubCameraFv
 0001:8002671C       def_80026714
 0001:800267B4       def_800267AC
 0001:8002682C       execCameraInbetween__16TCameraInbetweenFRCQ29JGeometry8TVec3<f>RCQ29JGeometry8TVec3<f>RCQ29JGeometry8TVec3<f>
 0001:80026BC4       initCameraInbetween__16TCameraInbetweenFRCQ29JGeometry8TVec3<f>RCQ29JGeometry8TVec3<f>RCQ29JGeometry8TVec3<f>
 0001:80026C64       startCameraInbetween__16TCameraInbetweenFi
 0001:80026CCC       addMoveCameraAndMario__16TCameraInbetweenFRC3Vec
 0001:80026DB4       warpPosAndAt__16TCameraInbetweenFRC3VecRC3Vec
 0001:80026E3C       __ct__16TCameraInbetweenFv
 0001:80026E84       CLBChaseConstantSpecifyFrame<f>__FPfff
 0001:80026EB4       inbetweenData__16TCameraKindParamFRC16TCameraKindParamf
 0001:800273D4       copySaveParam__16TCameraKindParamFRC17TCamSaveKindParam
 0001:80027550       CLBCalcNearNinePos__FPQ29JGeometry8TVec3<f>P6S16VecRCQ29JGeometry8TVec3<f>RCQ29JGeometry8TVec3<f>sfRCQ29JGeometry8TVec2<f>
 0001:800287B8       add__Q29JGeometry8TVec3<f>FRCQ29JGeometry8TVec3<f>
 0001:800289B4       CLBPolarToCross__FRC3VecP3Vecfss
 0001:80028A4C       CLBCrossToPolar__FRC3VecRC3VecPfPsPs
 0001:80028CAC       CLBCalc2DFPos__FPQ29JGeometry8TVec2<f>PA4_CfPA4_CfRC3VecPUlb
 0001:8002919C       getGunAngle__11TNozzleBaseFv
 0001:800291A4       __ct__16TCameraMarioDataFv
 0001:800293E0       getNozzleTopPos___15CPolarSubCameraCFPQ29JGeometry8TVec3<f>
 0001:800297B8       getNoticeActor___15CPolarSubCameraFv
 0001:80029AF0       setNoticeInfo__15CPolarSubCameraFv
 0001:80029D54       CLBSquared<f>__Ff
 0001:8002A3E8       __ct__17TCamSaveKindParamFPCc
 0001:8002B7C8       __ct__10TCamSaveExFv
 0001:8002BFAC       __ct__14TCamSaveNoticeFv
 0001:8002C718       keepShake__12TCameraShakeF16EnumCamShakeModef
 0001:8002C99C       startShake__12TCameraShake16EnumCamShakeModef
 0001:8002CD8C       __ct__12TCameraShakeFv
 0001:8002D0E0       __dt__10TLensFlare
 0001:8002D154       perform__10TLensFlareUlPQ26JDrama9TGraphics
 0001:8002D774       set__Q29JGeometry8TVec3<f>RC3Vec
 0001:8002E1A8       __dt__12J3DFrameCtrl
 0001:8002F220       load__9TSunModelR20JSUMemoryInputStream
 0001:8002F570       __ct__9TSunModelbPCc
 0001:8002F7C4       __ct__Q29JGeometry8TVec2<f>
 0001:8002F7C8       __ct__Q29JGeometry8TVec2<s>
 0001:8002F7CC       set<f>__Q29JGeometry8TVec3<f>fff_0
 0001:8002F7DC       __ct__Q26JDrama10TFlagT<Us>FUs
 0001:8002F7E4       __ct__Q26JDrama8TNameRefFPCc
 0001:8002FAE8       isInAreaCube__16TCubeManagerAreaCFRC3Vec
 0001:8002FC80       isInCube__16TCubeManagerBaseCFRC3Vecl
 0001:8002FCF0       getInCubeNo__16TCubeManagerBaseFCRC3Vec
 0001:8002FD88       getDataNo__16TCubeManagerBaseCFl
 0001:800308B4       ctrlMultiPlayerCamera___15CPolarSubCameraFv
 0001:80030C28       removeMultiPlayer__15CPolarSubCameraFPCQ29JGeometry8TVec3<f>
 0001:80030CC0       addMultiPlayer__15CPolarSubCameraFPCQ29JGeometry8TVec3<f>f
 0001:80030D1C       createMultiPlayer__15CPolarSubCameraFUc
 0001:80030DB4       __ct__16TMultiPlayerDataFv
 0001:80030DCC       __ct__17TCameraJetCoasterFv
 0001:80030E74       ctrlJetCoasterCamera___15CPolarSubCameraFv
 0001:80031C50       setFrame__10TCameraBckFf
 0001:80031CC4       updateDemo__10TCameraBckFPQ29JGeometry8TVec3<f>PQ29JGeometry8TVec3<f>PQ29JGeometry8TVec3<f>Pf
 0001:80031E88       getTransform__18J3DAnmTransformKeyCFUsP16J3DTransformInfo
 0001:80031EB8       endDemo__10TCameraBckFv
 0001:80031EE0       getTotalDemoFrames__10TCameraBckCFv
 0001:80031F40       startDemo__10TCameraBckFPCcPCQ29JGeometry8TVec3<f>
 0001:80031F80       isFileExist__10TCameraBckCFPCc
 0001:80031FA8       __ct__10TCameraBckFv
 0001:800320AC       moveToDown__13TCameraOptionFv
 0001:8003262C       isNormalDeadDemo__15CPolarSubCameraCFv
 0001:8003264C       isHellDeadDemo__15CPolarSubCameraCFv
 0001:800328F0       isSimpleDemoCamera__15CPolarSubCameraCFv
 0001:8003293C       endDemoCamera__15CPolarSubCameraFv
 0001:80032DD8       updateDemoCamera___15CPolarSubCameraFb
 0001:8003312C       addMoveCameraAndMario__15CPolarSubCameraFRC3Vec
 0001:80033390       warpPosAndAt__15CPolarSubCameraFfs
 0001:800335D4       warpPosAndAt__15CPolarSubCameraFRC3VecRC3Vec
 0001:80033738       isSlopeCameraMode__15CPolarSubCameraCFv
 0001:80033768       isOverHipAttackSpecifyMode__15CPolarSubCameraCFi
 0001:800337F0       def_800337E8
 0001:80033848       isFixCameraSpecifyMode__15CPolarSubCameraCFi
 0001:80033870       isRailCameraSpecifyMode__15CPolarSubCameraCFi
 0001:80033878       isFollowCameraSpecifyMode__15CPolarSubCameraCFi
 0001:80033950       def_80033948
 0001:800339A4       isTalkCameraInbetween__15CPolarSubCameraCFv
 0001:80033A9C       isTalkCameraSpecifyMode__15CPolarSubCameraCFi
 0001:80033AE8       isJetCoaster1stCamera__15CPolarSubCameraCFv
 0001:80033B1C       isLButtonCameraInbetween__15CPolarSubCameraCFv
 0001:80033BA4       isLButtonCameraSpecifyMode__15CPolarSubCameraCFi
 0001:80033ED8       perform__10TConductorFUlPQ26JDrama9TGraphics
 0001:80034348       searchF__10TConductorFUsPCc
 0001:8003455C       genEnemyFromPollution__10TConductorFv
 0001:800348A8       killEnemiesWithin__10TConductorFRCQ29JGeometry8TVec3<f>f
 0001:80034980       makeOneEnemyAppear__10TConductorFRCQ29JGeometry8TVec3<f>PCci
 0001:80034B14       makeEnemyAppear__10TConductorFRCQ29JGeometry8TVec3<f>PCcii
 0001:80034D40       isBossDefeated__10TConductorFv
 0001:80034F20       getManagerByName__10TConductorFPCc
 0001:80034FDC       getGraphByName__10TConductorPCc
 0001:80035010       init__10TConductorFv
 0001:80035140       registerEnemyInfoTable__10TConductorFP20TStageEnemyInfoTable
 0001:80035148       registerSDLModelData__10TConductorFP12SDLModelData
 0001:80035190       insert__Q27JGadget62TList<P12SDLModelData,Q27JGadget27TAllocator<P12SDLModelData>>FQ37JGadget62TList<P12SDLModelData,Q27JGadget27TAllocator<P12SDLModelData>>8iteratorRCP12SDLModelData
 0001:80035248       registerAreaCylinderManager__10TConductorFP20TAreaCylinderManager
 0001:80035290       insert__Q27JGadget78TList<P20TAreaCylinderManager,Q27JGadget35TAllocator<P20TAreaCylinderManager>>FQ37JGadget78TList<P20TAreaCylinderManager,Q27JGadget35TAllocator<P20TAreaCylinderManager>>8iteratorRCP20TAreaCylinderManager
 0001:80035348       registerGenerator__10TConductorFP10TGenerator
 0001:80035448       registerOtherObj__10TConductorFPQ26JDrama8TViewObj
 0001:80035490       insert__Q27JGadget70TList<PQ26JDrama8TViewObj,Q27JGadget31TAllocator<PQ26JDrama8TViewObj>>FQ37JGadget70TList<PQ26JDrama8TViewObj,Q27JGadget31TAllocator<PQ26JDrama8TViewObj>>8iteratorRCPQ26JDrama8TViewObj
 0001:80035548       registerAloneActor__10TConductorFP10TLiveActor
 0001:80035648       registerEnemyManager__10TConductorFP13TEnemyManager
 0001:80035748       registerManager__10TConductorFP12TLiveManager
 0001:80035848       initGraphGroup__10TConductorFv
 0001:8003586C       makeGraphGroup__10TConductorFPv
 0001:800358C8       __dt__10TConductorFv
 0001:8003601C       __eq__7JGadgetFQ37JGadget62TList<P12SDLModelData,Q27JGadget27TAllocator<P12SDLModelData>>8iteratorQ37JGadget62TList<P12SDLModelData,Q27JGadget27TAllocator<P12SDLModelData>>8iterator
 0001:80036034       erase__Q27JGadget62TList<P12SDLModelData,Q27JGadget27TAllocator<P12SDLModelData>>FQ37JGadget62TList<P12SDLModelData,Q27JGadget27TAllocator<P12SDLModelData>>8iterator
 0001:800360A0       __ct__Q37JGadget62TList<P12SDLModelData,Q27JGadget27TAllocator<P12SDLModelData>>8iteratorFPQ37JGadget62TList<P12SDLModelData,Q27JGadget27TAllocator<P12SDLModelData>>6TNode_
 0001:800360A8       __ct__10TConductorFv
 0001:80036770       createEnemyInstance__23TEffectExplosionManagerFv
 0001:80036CA4       createEnemyInstance__23TEffectColumSandManagerFv
 0001:800373C8       generate__17TEffectColumWaterFRQ29JGeometry8TVec3<f>RQ29JGeometry8TVec3<f>
 0001:80037D40       __ct__17TEffectObjManagerPCc
 0001:80037FAC       moveObject__14TEffectObjBaseFv
 0001:80038328       __ct__14TEffectObjBasePCc
 0001:80039044       createEnemyInstance__14TEMarioManagerFv
 0001:80039148       perform__7TEMarioFUlPQ26JDrama9TGraphics
 0001:80039484       startMonteReplay__7TEMarioFUl
 0001:800394EC       isReachedToGate__7TEMarioCFv
 0001:8003950C       isGoal__7TEMarioFv
 0001:8003952C       kill__7TEMarioFv
 0001:8003956C       receiveMessage__7TEMarioFP9THitActorUl
 0001:80039810       load__7TEMarioFR20JSUMemoryInputStream
 0001:80039AE0       __dt__6TMarioFv
 0001:80039BB0       __ct__7TEMarioFPCc
 0001:80039F64       perform__11TSpineEnemyFUlPQ26JDrama9TGraphics
 0001:8003A0C4       getCurAnmFrameNo__11TSpineEnemyCFi
 0001:8003A160       doShortCut__11TSpineEnemyFv
 0001:8003A480       zigzagToCurPathNode__11TSpineEnemyFffff
 0001:8003A9B0       walkToCurPathNode__11TSpineEnemyFfff
 0001:8003AE94       turnToCurPathNode__11TSpineEnemyFf
 0001:8003B588       __as__Q29JGeometry8TVec3<f>RCQ29JGeometry8TVec3<f>
 0001:8003B8D0       goToShortestNextGraphNode__11TSpineEnemyFv
 0001:8003BAA0       isInSight__11TSpineEnemyCFRCQ29JGeometry8TVec3<f>fff
 0001:8003BAD4       receiveMessage__11TSpineEnemyFP9THitActorUl
 0001:8003BB34       updateSquareToMario__11TSpineEnemyFv
 0001:8003BCE0       resetSRTV__11TSpineEnemyFRCQ29JGeometry8TVec3<f>RCQ29JGeometry8TVec3<f>RCQ29JGeometry8TVec3<f>RCQ29JGeometry8TVec3<f>
 0001:8003BE2C       resetToPosition__11TSpineEnemyFRCQ29JGeometry8TVec3<f>
 0001:8003BF38       getSaveParam__11TSpineEnemyCFv
 0001:8003BF44       calcRootMatrix__11TSpineEnemy
 0001:8003BFE0       calcEnemyRootMatrix__11TSpineEnemyFv
 0001:8003C39C       load__11TSpineEnemyFR20JSUMemoryInputStream
 0001:8003C460       reset__11TSpineEnemyFv
 0001:8003C518       init__11TSpineEnemyFP12TLiveManager
 0001:8003C588       __dt__11TSpineEnemyFv
 0001:8003C608       __ct__11TSpineEnemyPCc
 0001:8003C82C       __ct__9TPathNodeFv
 0001:8003C848       __dt__24TSpineBase<10TLiveActor>Fv
 0001:8003C8A8       update__24TSpineBase<10TLiveActor>Fv
 0001:8003D37C       sendMessage__16TEnemyAttachmentFv
 0001:8003D9D0       __ct__16TEnemyAttachmentFPCc
 0001:8003DB3C       SpcTrace__FPCce
 0001:8003DB8C       __dt__29TSpcTypedBinary<10TLiveActor>Fv
 0001:8003DBF0       copyAnmMtx__13TEnemyManagerFP11TSpineEnemy
 0001:8003DDA4       countLivingEnemy__13TEnemyManagerCFv
 0001:8003DE0C       killChildrenWithin__13TEnemyManagerFRCQ29JGeometry8TVec3<f>f
 0001:8003DEE4       killChildren__13TEnemyManagerFv
 0001:8003DF1C       getFarOutEnemy__13TEnemyManagerFv
 0001:8003DFBC       getDeadEnemy__13TEnemyManagerFv
 0001:8003E024       getNearestEnemy__13TEnemyManagerFRCQ29JGeometry8TVec3<f>
 0001:8003E0E4       perform__13TEnemyManagerFUlPQ26JDrama9TGraphics
 0001:8003E368       performShared__13TEnemyManagerFUlPQ26JDrama9TGraphics
 0001:8003E75C       copyFromShared__13TEnemyManagerFv
 0001:8003E9CC       updateAnmSoundShared__13TEnemyManagerFv
 0001:8003EB24       setSharedFlags__13TEnemyManagerFv
 0001:8003EC04       clipEnemies__13TEnemyManagerFPQ26JDrama9TGraphics
 0001:8003EC48       createEnemies__13TEnemyManagerFi
 0001:8003ED9C       __ct__Q37JGadget26TList_pointer<P9THitActor>8iteratorFQ37JGadget36TList<Pv,Q27JGadget14TAllocator<Pv>>8iterator
 0001:8003EDA8       end__Q27JGadget36TList<Pv,Q27JGadget14TAllocator<Pv>>Fv
 0001:8003EDB4       createEnemyInstance__13TEnemyManagerFv
 0001:8003EDBC       load__13TEnemyManagerFR20JSUMemoryInputStream
 0001:8003EF60       __dt__13TEnemyManagerFv
 0001:8003EFF4       __ct__13TEnemyManagerFPCc
 0001:8003F06C       __dt__12TLiveManagerFv
 0001:8003F258       __ct__17TSpineEnemyParamsFPCc
 0001:8003F738       __dt__11TEnemyMario
 0001:8003FDC4       drawHPMeter__11TEnemyMarioFPA4_f
 0001:8004006C       playerControl__11TEnemyMarioPQ26JDrama9TGraphics
 0001:8004080C       reachGoal__11TEnemyMarioFv
 0001:8004082C       thinkTrample__11TEnemyMarioFv
 0001:80040888       hitWater__11TEnemyMarioFP9THitActor
 0001:80040A24       def_800408E4
 0001:80040A3C       consider__11TEnemyMarioFv
 0001:80041278       def_80040A74
 0001:80041290       __ct__Q29JGeometry64TRotation3<Q29JGeometry38TMatrix44<Q29JGeometry13SMatrix44C<f>>>Fv
 0001:80041294       getGraph__12TGraphTracerCFv
 0001:8004129C       getPoint__9TPathNodeCFv
 0001:800412B8       __ct__Q29JGeometry38TMatrix44<Q29JGeometry13SMatrix44C<f>>Fv
 0001:80043198       initEnemyValues__11TEnemyMarioFv
 0001:800442E8       __dt__20JSUMemoryInputStreamFv
 0001:8004435C       __dt__20JSURandomInputStreamFv
 0001:800443C0       __dt__10JSUIosBaseFv
 0001:80044C3C       __dt__11J3DTexNoAnmFv
 0001:80044C88       __ct__11J3DTexNoAnmFv
 0001:80044CA4       initValues__11TEnemyMario
 0001:80044FD4       __sinit_enemyMario_cpp
 0001:800452D8       @112@drawSyncCallback__6TMarioUs
 0001:800452E0       __dt__15TMtxCalcFootInvFv
 0001:80045510       __ct__15TMtxCalcFootInvUsUsUsUsUsUs
 0001:80049E1C       __dt__12TWalkerEnemyFv
 0001:8004A974       isEatenByYosshi__11TSmallEnemyFv
 0001:8004A97C       jumpBehavior__11TSmallEnemyFv
 0001:8004A980       behaveToTaken__11TSmallEnemyFP9THitActor
 0001:8004A984       behaveToRelease__11TSmallEnemyFv
 0001:8004A988       setGenerateAnm__11TSmallEnemyFv
 0001:8004A98C       setFreezeAnm__11TSmallEnemyFv
 0001:8004A990       setMeltAnm__11TSmallEnemyFv
 0001:8004A994       isHitValid__11TSmallEnemyFUl
 0001:8004A9C0       isInhibitedForceMove__11TSmallEnemyFv
 0001:8004A9C8       endHitWaterJump__11TSmallEnemyFv
 0001:8004A9CC       setDeadEffect__11TSmallEnemyFv
 0001:8004AA6C       __dt__11TSmallEnemyFv
 0001:8004B0B0       traceSpline__12TGraphTracerFf
 0001:8004B22C       MsWrap<f>__Ffff
 0001:8004B274       calcSplineSpeed__12TGraphTracerFf
 0001:8004B4E4       moveTo__12TGraphTracerFi
 0001:8004B5A4       setTo__12TGraphTracerFi
 0001:8004B650       __ct__12TGraphTracerFv
 0001:8004B680       perform__11TGraphGroupFUlPQ26JDrama9TGraphics
 0001:8004B6D4       nullsub_88
 0001:8004B6D8       getGraphByName__11TGraphGroupFPCc
 0001:8004B77C       initGraphGroup__11TGraphGroupFv
 0001:8004B960       __ct__11TGraphGroupFPv
 0001:8004BAAC       getNeighborNodeIndexByFlag__9TGraphWebCFiiUl
 0001:8004BBA0       getNearestPosOnGraphLink__9TGraphWebCFRCQ29JGeometry8TVec3<f>
 0001:8004BE68       isDummy__9TGraphWebCFv
 0001:8004BE8C       indexToPoint__9TGraphWebCFi
 0001:8004BF18       startIsEnd__9TGraphWebCFv
 0001:8004BF90       initGoalIndex__9TGraphWebFRC3Vec
 0001:8004C054       calcGraphDirection__9TGraphWebFi
 0001:8004C108       findNearestVisibleIndex__9TGraphWebCFRCQ29JGeometry8TVec3<f>fffUl
 0001:8004C2C0       findNearestNodeIndex__9TGraphWebCFRCQ29JGeometry8TVec3<f>Ul
 0001:8004C3BC       getEscapeDirLimited__9TGraphWebCFiiRCQ29JGeometry8TVec3<f>RCQ29JGeometry8TVec3<f>fUl
 0001:8004C838       getRandomButDirLimited__9TGraphWebCFiiRCQ29JGeometry8TVec3<f>RCQ29JGeometry8TVec3<f>fUl
 0001:8004CC64       getAimToDirNextIndex__9TGraphWebCFiiRCQ29JGeometry8TVec3<f>RCQ29JGeometry8TVec3<f>Ul
 0001:8004CE84       getEscapeFromMarioIndex__9TGraphWebCFiiRCQ29JGeometry8TVec3<f>Ul
 0001:8004D0D4       getRandomNextIndex__9TGraphWebCFiiUl
 0001:8004D22C       getShortestNextIndex__9TGraphWebCFiiUl
 0001:8004D408       translateNodes__9TGraphWebFP9TRailNode
 0001:8004D5FC       filterRailNode__9TGraphWebCFUlPC9TRailNodePC9TRailNodeP9TRailNode
 0001:8004D748       __dt__9TGraphWebFv
 0001:8004D794       __ct__9TGraphWebFP9TRailNodePCci
 0001:8004D8F8       getPosAndRot__11TSplineRailFfPQ29JGeometry8TVec3<f>PQ29JGeometry8TVec3<f>
 0001:8004DB2C       getPoint__11TSplinePathFf
 0001:8004DC0C       __ct__11TSplineRailFPC9TGraphWeb
 0001:8004E1B8       getPoint__10TGraphNodeCFP3Vec
 0001:8004E22C       __ct__10TGraphNodeFv
 0001:8004E24C       __dt__27TNerveDoroHanePrepareAttackFv
 0001:8004F608       execute__25TNerveHamuKuriBoundFreezeCFP24TSpineBase<10TLiveActor>
 0001:8004F91C       __dt__25TNerveHamuKuriBoundFreezeFv
 0001:800505C4       __ct__13TDoroHamuKuriFPCc
 0001:80050870       sendAttackMsgToMario__13TFireHamuKuriFv
 0001:80055274       initAttacker__9THamuKuriFP9THitActor
 0001:8005543C       setRollAnm__9THamuKuriFv
 0001:800556E8       setAfterDeadEffect__9THamuKuriFv
 0001:800563A8       isFindMario__9THamuKuriFf
 0001:80056430       behaveToWater__9THamuKuriFP9THitActor
 0001:80056A94       __ct__9THamuKuriFPCc
 0001:80058A6C       doKeepDistance__11TSmallEnemyFv
 0001:80058E34       initSetEnemies__18TSmallEnemyManagerFv
 0001:80059BB0       __dt__14TNerveHino2DieFv
 0001:8005B92C       perform__10THinokuri2FUlPQ26JDrama9TGraphics
 0001:8005BB64       moveObject__10THinokuri2
 0001:8005C278       moveTrans__17TMapCollisionBaseFRCQ29JGeometry8TVec3<f>
 0001:8005C27C       receiveMessage__10THinokuri2P9THitActorUl
 0001:8005C2F0       receiveMessageLv2__10THinokuri2P9THitActorUl
 0001:8005C680       receiveMessageLv1__10THinokuri2P9THitActorUl
 0001:8005C914       receiveMessageLv0__10THinokuri2P9THitActorUl
 0001:8005CDB0       updateAnmSound__10THinokuri2
 0001:8005CE18       setLevel__10THinokuri2i
 0001:8005CF40       kill__10THinokuri2
 0001:8005CFAC       reset__10THinokuri2
 0001:8005D18C       init__10THinokuri2P12TLiveManager
 0001:8005D6EC       __ct__10THinokuri2PCc
 0001:80062064       setBehavior__11TSmallEnemyFv
 0001:80062068       setWalkAnm__11TSmallEnemyFv
 0001:8006206C       setRunAnm__11TSmallEnemyFv
 0001:800643E8       setEffectMtx__13J3DTexMtxInfoFPA4_f
 0001:80069260       __ct__7TPakkunFPCc
 0001:80069E0C       initAttacker__11TSmallEnemyFP9THitActor
 0001:8006A030       __sinit_pakkun_cpp
 0001:8006A494       theNerve__22TNerveSmallEnemyChangeFv
 0001:8006A590       setWaitAnm__11TSmallEnemyFv
 0001:8006AA2C       theNerve__20TNerveSmallEnemyJumpFv
 0001:8006AFF0       setDeadAnm__11TSmallEnemyFv
 0001:8006AFF4       theNerve__19TNerveSmallEnemyDieFv
 0001:8006B058       perform__11TSmallEnemyFUlPQ26JDrama9TGraphics
 0001:8006B354       isEaten__11TSmallEnemyFv
 0001:8006B52C       setBckAnm__11TSmallEnemyFi
 0001:8006B5A0       generateEffectColumWater__11TSmallEnemyFv
 0001:8006B630       isFindMarioFromParam__11TSmallEnemyCFf
 0001:8006B7BC       isFindMario__11TSmallEnemyFf
 0001:8006B928       kill__11TSmallEnemyFv
 0001:8006BAB8       decHpByWater__11TSmallEnemyFP9THitActor
 0001:8006BB04       changeOut__11TSmallEnemyFv
 0001:8006BBE0       scalingChangeActor__11TSmallEnemyFv
 0001:8006BC74       changeMove__11TSmallEnemyFv
 0001:8006C0D0       getChangeBlockTime__11TSmallEnemyFv
 0001:8006C0D8       changeByJuice__11TSmallEnemyFv
 0001:8006C340       receiveMessage__11TSmallEnemyFP9THitActorUl
 0001:8006C570       updateAnmSound__11TSmallEnemyFv
 0001:8006C590       moveObject__11TSmallEnemyFv
 0001:8006C9EC       moveSRT__17TMapCollisionBaseFRCQ29JGeometry8TVec3<f>RCQ29JGeometry8TVec3<f>RCQ29JGeometry8TVec3<f>
 0001:8006C9F0       isCollidMove__11TSmallEnemyFP9THitActor
 0001:8006CA5C       generateItem__11TSmallEnemyFv
 0001:8006CB64       setAfterDeadEffect__11TSmallEnemyFv
 0001:8006CC5C       genEventCoin__11TSmallEnemyFv
 0001:8006CF60       genRandomItem__11TSmallEnemyFv
 0001:8006CFF0       forceKill__11TSmallEnemyFv
 0001:8006D214       reset__11TSmallEnemyFv
 0001:8006D648       attackToMario__11TSmallEnemyFv
 0001:8006D758       sendAttackMsgToMario__11TSmallEnemyFv
 0001:8006D77C       behaveToWater__11TSmallEnemyFP9THitActor
 0001:8006D8F4       loadAfter__11TSmallEnemyFv
 0001:8006D928       load__11TSmallEnemyFR20JSUMemoryInputStream
 0001:8006D998       init__11TSmallEnemyFP12TLiveManager
 0001:8006DD24       setMActorAndKeeper__11TSmallEnemyFv
 0001:8006DD8C       __ct__11TSmallEnemyFPCc
 0001:8006DE8C       createEnemies__18TSmallEnemyManagerFi
 0001:8006DECC       loadAfter__18TSmallEnemyManagerFv
 0001:8006DF24       load__18TSmallEnemyManagerFR20JSUMemoryInputStream
 0001:8006DF44       createModelData__18TSmallEnemyManagerFv
 0001:8006DF78       __ct__18TSmallEnemyManagerFPCc
 0001:8006DFC4       __ct__17TSmallEnemyParamsFPCc
 0001:8006EE38       calcSpline__11TSplinePathFfPfPfPf
 0001:8006EF1C       calcTable__11TSplinePathFv
 0001:8006F07C       makeTable__11TSplinePathFPfPfPf
 0001:8006F3E0       __ct__11TSplinePathFi
 0001:8006F4F8       __dt__24TNerveTypicalGraphWanderFv
 0001:8006F6BC       createEnemyInstance__15TTypicalManagerFv
 0001:8006F804       __ct__15TTypicalManagerFPCc
 0001:8006F8F8       __ct__13TTypicalEnemyFPCc
 0001:8006FA38       setMode__7TWalkerFi
 0001:80070708       reset__7TWalkerFv
 0001:800707A0       __ct__7TWalker
 0001:800714E0       __dt__23TNerveWalkerGraphWanderFv
 0001:800716DC       initialGraphNode__12TWalkerEnemyFv
 0001:800717D0       isResignationAttack__12TWalkerEnemyFv
 0001:800718AC       initAttacker__12TWalkerEnemyFP9THitActor
 0001:800718D0       behaveToFindMario__12TWalkerEnemyFv
 0001:80071BE8       walkBehavior__12TWalkerEnemyFif
 0001:80071CFC       reset__12TWalkerEnemyFv
 0001:80071E60       attackToMario__12TWalkerEnemyFv
 0001:80072014       moveObject__12TWalkerEnemyFv
 0001:800721E4       init__12TWalkerEnemyFP12TLiveManager
 0001:80072310       __ct__12TWalkerEnemyFPCc
 0001:80072354       __ct__18TWalkerEnemyParamsFPCc
 0001:8007375C       execute__11TNerveBGDieCFP24TSpineBase<10TLiveActor>
 0001:80074814       execute__18TNerveBGBeakDamageCFP24TSpineBase<10TLiveActor>
 0001:80076CEC       def_80076A80
 0001:8007706C       SMS_GetMarioPos__Fv
 0001:80078E30       def_80078888
 0001:8007930C       init__10TBossGessoFP12TLiveManager
 0001:80079BCC       __ct__10TBossGessoFPCc
 0001:80079CA0       bind__9TBGBinderFP10TLiveActor
 0001:8007BCBC       __dt__9TBGBinderFv
 0001:8007DC5C       receiveMessage__13TElecCarapaceFP9THitActorUl
 0001:80081B08       def_80081838
 0001:80086E5C       slerp__Q29JGeometry9TQuat4<f>FRCQ29JGeometry9TQuat4<f>f
 0001:800895B8       isTaken__10TTakeActorCFv
 0001:8008BA9C       __ct__11TFireWanwanFPCc
 0001:8008D2D0       perform__18TFireWanwanManagerFUlPQ26JDrama9TGraphics
 0001:8008D56C       createModelData__18TFireWanwanManagerFv
 0001:8008EF28       getMatchedInfo__20TStageEnemyInfoTableFl
 0001:8008F03C       __ct__20TStageEnemyInfoTableFPCc
 0001:8008F1CC       __dt__20TStageEnemyInfoTableFv
 0001:8008F254       loadAfter__53TNameRefPtrAryT<15TStageEnemyInfo,Q26JDrama8TNameRef>Fv
 0001:8008F2B4       searchF__53TNameRefPtrAryT<15TStageEnemyInfo,Q26JDrama8TNameRef>FUsPCc
 0001:8008F350       load__53TNameRefPtrAryT<15TStageEnemyInfo,Q26JDrama8TNameRef>FR20JSUMemoryInputStream
 0001:80091420       mexecute__11TNerveBPFlyCFP24TSpineBase<10TLiveActor>
 0001:800919DC       execute__11TNerveBPDieCFP24TSpineBase<10TLiveActor>
 0001:80095448       moveMtx__17TMapCollisionBaseFPA4_f
 0001:800969EC       setUp__17TMapCollisionBaseFv
 0001:800969FC       __ct__11TBossPakkunFPCc
 0001:80097390       throwActor__10TBPHeadHitFP9THitActor
 0001:800982D4       __ct__10TBPTornadoFP11TBossPakkunPCc
 0001:80098A18       __ct__10TBPPolDropFP11TBossPakkunPCc
 0001:8009D7B0       __ct__18TTobiPukuLaunchPadFPCc
 0001:8009DA58       createEnemyInstance__24TMoePukuLaunchPadManagerFv
 0001:8009DBF8       createEnemyInstance__25TTobiPukuLaunchPadManagerFv
 0001:8009EB8C       remove__17TMapCollisionBaseFv
 0001:800A0990       __ct__9TTinKoopaFPCc
 0001:800A0B14       moveMtx__17TMapCollisionMoveFPA4_f
 0001:800A100C       setUpTrans__17TMapCollisionBaseFRCQ29JGeometry8TVec3<f>
 0001:800A1A90       init__9TTinKoopaFP12TLiveManager
 0001:800A3468       __ct__15TCommonLauncherFPCc
 0001:800A3D34       __sinit_launcher_cpp
 0001:800A4D34       setMtx__17TMapCollisionBaseFPA4_f
 0001:800A98D4       MsPerpendicFootToLineR__FRCQ29JGeometry8TVec3<f>RCQ29JGeometry8TVec3<f>RCQ29JGeometry8TVec3<f>
 0001:800AB8A4       __sinit_bosswanwan_cpp
 0001:800B3124       createEnemyInstance__16TGorogoroManagerFv
 0001:800B4C30       __ct__7TIgaigaFPCc
 0001:800B4F28       createEnemyInstance__14TIgaigaManagerFv
 0001:800B5294       setBehavior__10TRollEnemyFv
 0001:800B5C94       __ct__10TRollEnemyFPCc
 0001:800BD400       nullsub_83
 0001:800BEA28       execute__22TNerveBossTelesaAppearCFP24TSpineBase<10TLiveActor>
 0001:800C14C4       rouletteFall__11TBossTelesaFv
 0001:800C6DD8       __dt__11TMapObjBaseFv
 0001:800C6E44       initNeonMatColor__11TTelesaSlotFv
 0001:800C6E48       getRollAngX__9TSlotDrumCFi
 0001:800C6E58       getRollAngY__17TSirenaRollMapObjCFi
 0001:800C6E60       getRollAngZ__17TSirenaRollMapObjCFi
 0001:800C6E68       kill__11TMapObjBaseFv
 0001:800C6E94       getRadiusAtY__11TMapObjBaseCFf
 0001:800C6E9C       getTakingMtx__11TMapObjBaseFv
 0001:800C6ED0       setModelMtx__11TMapObjBaseFPA4_f
 0001:800C6F08       loadBeforeInit__11TMapObjBaseFR20JSUMemoryInputStream
 0001:800C6F0C       calc__11TMapObjBaseFv
 0001:800C6F10       draw__11TMapObjBaseCFv
 0001:800C6F14       dead__11TMapObjBaseFv
 0001:800C6F18       getHitObjNumMax__11TMapObjBaseFv
 0001:800C6F20       getDepthAtFloating__11TMapObjBaseFv
 0001:800C6F28       getRollAngX__17TSirenaRollMapObjCFi
 0001:800C6F30       touchWater__11TMapObjBaseFP9THitActor
 0001:800C7DAC       __ct__10TRiccoHookFPCc
 0001:800CA7FC       __ct__8TBombHeiFPCc
 0001:800CCE10       nullsub_20
 0001:800CD9A0       nullsub_84
 0001:800CF454       __ct__7TCannonFPCc
 0001:800DDDC8       nullsub_71
 0001:800DDE90       nullsub_72
 0001:800DDE94       nullsub_73
 0001:800DE0E8       nullsub_74
 0001:800DE728       nullsub_75
 0001:800DE72C       nullsub_76
 0001:800E35CC       init__10THanaSamboFP12TLiveManager
 0001:800E393C       __ct__10THanaSamboFPCc
 0001:800E3B64       createEnemyInstance__17THanaSamboManagerFv
 0001:800E5164       checkGenCoin__20TSamboFlowerCoinUnitFv
 0001:800E55C8       nullsub_85
 0001:800EB368       load__18TFruitsBoatManagerFR20JSUMemoryInputStream
 0001:800ED344       isIllegalData__12TBGCheckDataCFv
 0001:800EE624       perform__13TBossHanachanFUlPQ26JDrama9TGraphics
 0001:800F022C       kill__13TBossHanachanFv
 0001:800F13A8       execute__23TNerveBossHanachanSnortCFP24TSpineBase<10TLiveActor>
 0001:800F33A8       def_800F3334
 0001:800F4870       __ct__22TBossHanachanPartsBaseFP13TBossHanachanUliPCc
 0001:800F4B64       CLBPalFrame<s>__Fs
 0001:800FA4C8       execute__15TNerveBGKAppearCFP24TSpineBase<10TLiveActor>
 0001:800FFB18       __ct__10TBGPolDropFPCc
 0001:80101240       def_80100FA8
 0001:8010170C       def_801012E0
 0001:801022E4       def_80102108
 0001:80102960       __ct__11TBGTentacleFP10TBossGessoii
 0001:801061E0       __dt__19TNerveHauntLegHauntFv
 0001:8010623C       execute__19TNerveHauntLegHauntCFP24TSpineBase<10TLiveActor>
 0001:80106530       getTakingMtx__9THauntLegFv
 0001:801065D0       getBasNameTable__9THauntLegCFv
 0001:801065DC       isCollidMove__9THauntLegFP9THitActor
 0001:80106730       attackToMario__9THauntLegFv
 0001:80106780       setDeadAnm__9THauntLegFv
 0001:801067E8       setRunAnm__9THauntLegFv
 0001:80106818       setWalkAnm__9THauntLegFv
 0001:80106848       setWaitAnm__9THauntLegFv
 0001:80106878       setGenerateAnm__9THauntLegFv
 0001:801068A8       calcRootMatrix__9THauntLegFv
 0001:80106CB0       reset__9THauntLegFv
 0001:80106CE4       setMActorAndKeeper__9THauntLegFv
 0001:80106D50       init__9THauntLegFP12TLiveManager
 0001:80106EBC       receiveMessage__14THauntedObjectFP9THitActorUl
 0001:80106F10       createModelData__16THauntLegManagerFv
 0001:80106F44       initSetEnemies__16THauntLegManagerFv
 0001:80107108       createEnemyInstance__16THauntLegManagerFv
 0001:8010717C       load__16THauntLegManagerFR20JSUMemoryInputStream
 0001:801071D4       __ct__16THauntLegManagerFPCc
 0001:80107388       __dt__9THauntLegFv
 0001:80107424       __dt__14THauntedObjectFv
 0001:80107828       __dt__20TAreaCylinderManagerFv
 0001:8010791C       __eq__7JGadgetFQ37JGadget64TList<P13TAreaCylinder,Q27JGadget28TAllocator<P13TAreaCylinder>>8iteratorQ37JGadget64TList<P13TAreaCylinder,Q27JGadget28TAllocator<P13TAreaCylinder>>8iterator
 0001:80107934       erase__Q27JGadget64TList<P13TAreaCylinder,Q27JGadget28TAllocator<P13TAreaCylinder>>FQ37JGadget64TList<P13TAreaCylinder,Q27JGadget28TAllocator<P13TAreaCylinder>>8iterator
 0001:801079A0       __ct__Q37JGadget64TList<P13TAreaCylinder,Q27JGadget28TAllocator<P13TAreaCylinder>>8iteratorFPQ37JGadget64TList<P13TAreaCylinder,Q27JGadget28TAllocator<P13TAreaCylinder>>6TNode_
 0001:801079A8       perform__20TAreaCylinderManagerFUlPQ26JDrama9TGraphics
 0001:801079AC       getCylinderContains__20TAreaCylinderManagerFRCQ29JGeometry8TVec3<f>
 0001:80109E50       def_80109C94
 0001:8010BA18       __ct__7TRocketFPCc
 0001:8010BCB4       createEnemyInstance__14TRocketManagerFv
 0001:8010CD98       set<f>__Q29JGeometry8TVec4<f>Fffff
 0001:8010CDAC       getQuat__Q29JGeometry64TRotation3<Q29JGeometry38TMatrix34<Q29JGeometry13SMatrix34C<f>>>CFRQ29JGeometry9TQuat4<f>
 0001:8010ED88       __ct__8TKazekunFPCc
 0001:80110FA4       end__Q27JGadget26TList_pointer<P9THitActor>Fv
 0001:80115220       execute__17TNerveYumboAttackCFP24TSpineBase<10TLiveActor>
 0001:80115CC4       createModelData__13TYumboManagerFv
 0001:80115CF8       load__13TYumboManagerFR20JSUMemoryInputStream
 0001:80115EC4       __ct__13TYumboManagerFPCc
 0001:80115F08       attackToMario__6TYumboFv
 0001:80115FB4       doKeepDistance__6TYumboFv
 0001:80116044       setDeadAnm__6TYumboFv
 0001:80116074       shotSeeds__6TYumboFv
 0001:801166C4       perform__6TYumboFUlPQ26JDrama9TGraphics
 0001:80116744       moveObject__6TYumboFv
 0001:80116948       receiveMessage__6TYumboFP9THitActorUl
 0001:80116C90       __ct__6TYumboFPCc
 0001:80116FB8       __dt__6TYumboFv
 0001:8011703C       __dt__13TYumboManagerFv
 0001:80117C38       mod__Q29JGeometry8TUtil<f>Fff
 0001:80118FB8       set__Q29JGeometry13SMatrix34C<f>Fffffffffffff
 0001:8011A7B0       pushNerve__24TSpineBase<10TLiveActor>FPC24TNerveBase<10TLiveActor>
 0001:8011C9B8       getNormal__12TBGCheckDataCFv
 0001:8011D308       rotate__Q29JGeometry9TQuat4<f>CFRCQ29JGeometry8TVec3<f>RQ29JGeometry8TVec3<f>
 0001:8011D3A0       negate__Q29JGeometry8TVec3<f>v
 0001:8011D3C8       xyz__Q29JGeometry8TVec4<f>Fv
 0001:8011D3CC       __ct__Q29JGeometry8TVec4<f>FRCQ29JGeometry8TVec4<f>
 0001:8011D3F0       getQuat__8TKumokunCFv
 0001:80121B00       __ct__8TKumokunFPCc
 0001:80121EFC       __ct__Q29JGeometry14TPartition3<f>Fv
 0001:8012280C       __ct__13TKoopaManagerFPCc
 0001:80124C6C       def_80124A0C
 0001:8012B034       __ct__6TKukkuFPCc
 0001:8012DF2C       __ct__7TAmenboFPCc
 0001:8012F15C       createEnemyInstance__21TBathtubKillerManagerFv
 0001:80133110       __ct__14TBathtubKillerFPCc
 0001:80134D58       nullsub_82
 0001:80136124       __ct__11TDebuTelesaFPCc
 0001:8013904C       __ct__9TTabePukuFPCc
 0001:8013B940       loadAfter__11TLimitKoopaFv
 0001:8013C8E8       subtract__Q29JGeometry8TVec3<f>RCQ29JGeometry8TVec3<f>RCQ29JGeometry8TVec3<f>
 0001:8013EB58       setValue__8TCoord2DFlffff
 0001:8013EBD0       __ct__8TCoord2DFv
 0001:8013EBF0       update__7TExPaneFv
 0001:8013EE8C       resize__7J2DPaneFii
 0001:8013EEB0       move__7J2DPaneFii
 0001:8013EED4       __ct__7TExPaneFP9J2DScreenUl
 0001:8013F680       setDisplaySize__9TSMSFaderFii
 0001:8013F7C0       setColor__9TSMSFaderFQ28JUtility6TColor
 0001:8013F860       startWipe__9TSMSFaderFUlff
 0001:80140008       __ct__9TSMSFaderFQ28JUtility6TColorfPCc
 0001:801407C8       __dt__11TGCConsole2Fv
 0001:8014083C       perform__11TGCConsole2FUlPQ26JDrama9TGraphics
 0001:80141344       def_80140C8C
 0001:801441E0       drawWater__11TGCConsole2FR13J2DOrthoGraph
 0001:80144840       drawJuice__11TGCConsole2FR13J2DOrthoGraphUl
 0001:80144D84       setPaneBlend__10TBlendPaneFlP10JUTTextureP10JUTTexture
 0001:80144E34       add__7J2DPaneFii
 0001:80144E58       processDisappearBalloon__11TGCConsole2Fv
 0001:80144F74       getAvailable__21JSURandomOutputStreamCFv
 0001:80144FD0       getAvailable__20JSURandomInputStreamC
 0001:8014502C       processAppearBalloon__11TGCConsole2Fv
 0001:80145140       processAppearTimer__11TGCConsole2Fi
 0001:801455CC       processAppearRed__11TGCConsole2Fi
 0001:801458E4       processAppearJet__11TGCConsole2Fi
 0001:80145CF0       def_80145C08
 0001:80147244       roundf<i>__8TCoord2DCFf
 0001:80147278       set__Q28JUtility6TColorUcUcUcUc
 0001:80147548       getFinishedTime__11TGCConsole2Fv
 0001:80147550       stopMoveTimer__11TGCConsole2Fv
 0001:80147568       startMoveTimer__11TGCConsole2Fi
 0001:8014757C       countBlueCoin__11TGCConsole2Fv
 0001:80147A0C       countShine__11TGCConsole2Fv
 0001:8014836C       setTimer__11TGCConsole2Fl
 0001:801487D4       checkDolpic8__11TGCConsole2Fv
 0001:8014A1EC       startAppearBalloon__11TGCConsole2FUlb
 0001:8014A4FC       pauseOut__11TGCConsole2Fv
 0001:8014A9BC       startAppearRedCoin__11TGCConsole2Fv
 0001:8014AB60       startInsertJetBalloon__11TGCConsole2Fv
 0001:8014AD04       startAppearJetBalloon__11TGCConsole2Fii
 0001:8014AE30       startInsertTimer__11TGCConsole2Fv
 0001:8014AFCC       startAppearTimer__11TGCConsole2Fil
 0001:8014B1D8       startDisappearTimer__11TGCConsole2Fv
 0001:8014B450       startAppearTelop__11TGCConsole2Fb
 0001:8014CE84       startCameraDemo__11TGCConsole2Fv
 0001:8014D884       loadAfter__11TGCConsole2Fv
 0001:8014EC8C       __dt__21JSURandomOutputStreamFv
 0001:8014ECF0       getWidth__10JUTResFontCFv
 0001:8014ECFC       load__11TGCConsole2FR20JSUMemoryInputStream
 0001:8014FBBC       __ct__11TGCConsole2FPCc
 0001:801500C4       __ct__8JUTPointFv
 0001:801500D4       __ct__Q28JUtility6TColorFv
 0001:801500E0       __ct__7JUTRectFv
 0001:801504A0       __dt__8TTalk2D2Fv
 0001:80150514       openWindow__8TTalk2D2FScf
 0001:801509E8       setTagParam__8TTalk2D2FR20JSUMemoryInputStreamR10J2DTextBoxPiPi
 0001:801515A0       setupTextBox__8TTalk2D2FPCvP12JMSMesgEntry
 0001:80151978       setupBoardTextBox__8TTalk2D2FPCvP12JMSMesgEntry
 0001:80151C14       __dt__21JSUMemoryOutputStreamFv
 0001:80151C88       perform__8TTalk2D2FUlPQ26JDrama9TGraphics
 0001:80151E94       def_80151CE0
 0001:80153824       openTalkWindow__8TTalk2D2FP8TBaseNPC
 0001:80153A38       forceCloseTalk__8TTalk2D2Fv
 0001:80153AD8       setMessageID__8TTalk2D2FUlUl
 0001:80153ED0       loadAfter__8TTalk2D2Fv
 0001:80154454       load__8TTalk2D2FR20JSUMemoryInputStream
 0001:801547FC       __ct__8TTalk2D2FPCc
 0001:8015499C       __sinit_Talk2D2_cpp
 0001:8015508C       setPanePosition__10TBoundPaneFlRC8JUTPointRC8JUTPointRC8JUTPoint
 0001:80155100       __ct__10TBoundPaneFP9J2DScreenUl
 0001:80156B0C       load__11TPauseMenu2FR20JSUMemoryInputStream
 0001:8015724C       getMessageEntry__14TMessageLoaderFUl
 0001:80157278       parseBlock__14TMessageLoaderFUlUlPv
 0001:801574B4       __ct__10JSUIosBase
 0001:801574CC       loadMessageData__14TMessageLoaderFPCc
 0001:80157540       __ct__14TMessageLoaderFPCc
 0001:801575AC       __ct__14TMessageLoaderFv
 0001:80157AB4       SMSGetMessageData__FPvUl
 0001:80157D9C       SMSMakeTextBuffer__FP10J2DTextBoxi
 0001:80157E7C       __dt__9TCardSave
 0001:80157EF0       getNextState__9TCardSaveFv
 0001:8015B178       def_80157F7C
 0001:80162028       perform__9TCardSaveFUlPQ26JDrama9TGraphics
 0001:8016210C       init__9TCardSaveFi
 0001:801621D8       initData__9TCardSaveFP13TMarioGamePad
 0001:80163480       __ct__9TCardSaveFPCcb
 0001:80163AA0       changeScene__9TCardLoadFv
 0001:80164FE4       def_80163AD8
 0001:801651E4       setSelected__9TCardLoadFUc
 0001:8016CB60       def_8016C0AC
 0001:8016D880       def_8016CBEC
 0001:8016D968       def_8016D8DC
 0001:8016D9D0       __ct__14JSUInputStream
 0001:8016DAF8       setupScoreScreen__9TCardLoadFv
 0001:8016FAC0       SMS_getShineID__FUlUlb
 0001:8016FE8C       startOpenWipe__11TConsoleStrFv
 0001:8017004C       startCloseWipe__11TConsoleStrFb
 0001:801705E0       processScenario__11TConsoleStrFi
 0001:801706B0       processMiss__11TConsoleStrFi
 0001:80170A10       processShineGet__11TConsoleStrFi
 0001:80170D18       processGo__11TConsoleStrFf
 0001:801713AC       processReady__11TConsoleStrFi
 0001:801718E4       startAppearScenario__11TConsoleStrFv
 0001:80171A28       startAppearMiss__11TConsoleStrFv
 0001:80171B90       startAppearShineGet__11TConsoleStrFv
 0001:80171BB8       startAppearGo__11TConsoleStrFv
 0001:80171C2C       startAppearReady__11TConsoleStrFv
 0001:801743B8       def_80172CDC
 0001:80177354       __dt__Q26JDrama55TViewObjPtrListT<Q26JDrama8TViewObj,Q26JDrama8TViewObj>Fv
 0001:80177538       __ct__10TSelectDirFv
 0001:80177600       __dt__Q26JDrama9TDirectorFv
 0001:80177984       __dt__12TSelectShineFv
 0001:801779D0       move__12TSelectShineFv
 0001:80177EA0       __ct__12TSelectShineFP12J3DModelDataP11J3DAnmColorP17JPAEmitterManagerRQ29JGeometry8TVec3<f>sUcfff
 0001:801798DC       def_801793D8
 0001:8017D574       startFade__9TSunGlassFib
 0001:8017D814       registFadeout__11TShineFaderFUsUs
 0001:8017DD80       __ct__11TProgSelectFUcPCc
 0001:8017FB30       def_8017F7C8
 0001:8018040C       Hx_GameOver
 0001:80181DE0       Hx_MotionSet
 0001:80181E58       Hx_TimerCountDown
 0001:801821C0       Hx_ResetWipe
 0001:801821FC       nullsub_13
 0001:80182AD0       Hgx_ReadTexture
 0001:80183274       setupResource__14TMovieSubTitleFPCcP10JKRArchive
 0001:80183408       __ct__14TMovieSubTitleFPC10TTHPRender
 0001:80183490       resetChangedSetting__14TOptionControlFv
 0001:8018351C       isChangedSetting__14TOptionControlCFv
 0001:801835EC       checkInput__14TOptionControlFv
 0001:80183A20       startSoundSystemSE__6MSoundFUlUlPP8JAISoundUl
 0001:80183A8C       SMSGetMSound__Fv
 0001:80183A94       begin__Q29@unnamed@16ArrayWrapper<Ul>CFv
 0001:80183A9C       setType__14TOptionControlFQ214TOptionControl10SelectTypeb
 0001:80183C50       movementOption2Card__14TOptionControlFv
 0001:80183D48       movementOption__14TOptionControlFv
 0001:80183F60       mod__Q29JGeometry8TUtil<i>Fii
 0001:80183F70       __ct__7JUTRectFiiii
 0001:80183FA0       clamp__Q29JGeometry8TUtil<l>Flll
 0001:80183FC0       movementCard2Option__14TOptionControlFv
 0001:801840B8       draw__14TOptionControlFP13J2DOrthoGraph
 0001:801840E8       loadSetting__14TOptionControlFv
 0001:801845B8       load__14TOptionControlFv
 0001:80184790       setInfluencedAlphaRecursive__16TOptionSoundUnitFP7J2DPaneb
 0001:8018487C       getObject__17JSUTree<7J2DPane>CFv
 0001:80184884       getFirstLink__10JSUPtrListCFv
 0001:8018488C       adjustView__16TOptionSoundUnitFv
 0001:80184CA0       setState__16TOptionSoundUnitFQ216TOptionSoundUnit5State
 0001:80185050       typeToFlag__16TOptionSoundUnitFQ216TOptionSoundUnit9SoundType
 0001:8018508C       flagToType__16TOptionSoundUnitFi
 0001:801850C8       update__16TOptionSoundUnitFv
 0001:8018539C       initSurroundAnm__16TOptionSoundUnitFv
 0001:80185714       initSteleoAnm__16TOptionSoundUnitFv
 0001:80185944       __ct__16TOptionSoundUnitFP9J2DScreen
 0001:80185D3C       __ct__Q29@unnamed@35ArrayWrapper<P18TPatternAnmControl>Fv
 0001:80185D4C       setInfluencedAlphaRecursive__19TOptionSubtitleUnitFP7J2DPaneb
 0001:80185E38       setState__19TOptionSubtitleUnitFQ219TOptionSubtitleUnit5State
 0001:8018615C       update__19TOptionSubtitleUnitFv
 0001:801863E0       __ct__19TOptionSubtitleUnitFP9J2DScreen
 0001:801866A0       setInfluencedAlphaRecursive__17TOptionRumbleUnitFP7J2DPaneb
 0001:8018678C       setState__17TOptionRumbleUnitFQ217TOptionRumbleUnit5State
 0001:80186B94       adjustView__17TOptionRumbleUnitFv
 0001:80186CA8       update__17TOptionRumbleUnitFv
 0001:8018706C       __ct__17TOptionRumbleUnitFP9J2DScreen
 0001:80187470       hide__18TPatternAnmControlFv
 0001:8018758C       update__18TPatternAnmControlFv
 0001:8018769C       setupAnm__18TPatternAnmControlFv
 0001:80187CC4       init__12TMovieRumbleFPCc
 0001:80187E24       __ct__12TMovieRumbleFPC10TTHPRender
 0001:80187EA0       getJ3DModelDataFlag__11TJointModelCFv
 0001:80187EA8       newJointObj__9TJointObjCFv
 0001:80187EE8       __ct__11TJointModelFv
 0001:80187F38       initJointModel__11TJointModelFP18TJointModelManagerPCcP13MActorAnmData
 0001:80187F84       initActor__11TJointModelFPCcP13MActorAnmData
 0001:801880C8       perform__11TJointModelFUlPQ26JDrama9TGraphics
 0001:80188408       __dt__18TJointModelManagerFv
 0001:801884E4       erase__Q27JGadget68TList<16MActorSubAnmInfo,Q27JGadget30TAllocator<16MActorSubAnmInfo>>FQ37JGadget68TList<16MActorSubAnmInfo,Q27JGadget30TAllocator<16MActorSubAnmInfo>>8iteratorQ37JGadget68TList<16MActorSubAnmInfo,Q27JGadget30TAllocator<16MActorSubAnmInfo>>8iterator
 0001:8018858C       __ct__Q37JGadget68TList<16MActorSubAnmInfo,Q27JGadget30TAllocator<16MActorSubAnmInfo>>8iteratorFPQ37JGadget68TList<16MActorSubAnmInfo,Q27JGadget30TAllocator<16MActorSubAnmInfo>>6TNode_
 0001:80188594       newJointModel__18TJointModelManagerCFi
 0001:801885D4       __ct__18TJointModelManagerFPCc
 0001:801886C4       initJointModel__18TJointModelManagerFPCcPPCc
 0001:801887AC       perform__18TJointModelManagerFUlPQ26JDrama9TGraphics
 0001:80188B18       __ct__9TJointObjFv
 0001:80188B48       initJointObj__9TJointObjFP8J3DJoint
 0001:80188BFC       initChildren__9TJointObjFv
 0001:80188CE4       kill__9TJointObjFv
 0001:80188DCC       alive__9TJointObjFv
 0001:80188E94       sleep__9TJointObjFv
 0001:80188F8C       awake__9TJointObjFv
 0001:80189068       sit__9TJointObjFv
 0001:80189138       stand__9TJointObjFv
 0001:80189504       __dt__4TMapFv
 0001:80189578       __ct__4TMapFPCc
 0001:80189678       load__4TMapFR20JSUMemoryInputStream
 0001:801896FC       loadAfter__4TMapFv
 0001:80189720       perform__4TMapFUlPQ26JDrama9TGraphics
 0001:80189804       changeModel__4TMapCFs
 0001:8018982C       checkGround__4TMapCFfffPPC12TBGCheckData
 0001:80189858       checkGround__4TMapCFRCQ29JGeometry8TVec3<f>PPC12TBGCheckData
 0001:8018988C       checkGroundExactY__4TMapCFfffPPC12TBGCheckData
 0001:801898C0       checkGroundIgnoreWaterSurface__4TMapCFRCQ29JGeometry8TVec3<f>PPC12TBGCheckData
 0001:801898F4       checkGroundIgnoreWaterSurface__4TMapCFfffPPC12TBGCheckData
 0001:80189980       checkRoof__4TMapCFfffPPC12TBGCheckData
 0001:801899AC       checkRoofIgnoreWaterThrough__4TMapCFfffPPC12TBGCheckData
 0001:801899D8       isTouchedWallsAndMoveXZ__4TMapCFP18TBGWallCheckRecord
 0001:80189A10       isTouchedOneWallAndMoveXZ__4TMapCFPffPff
 0001:80189ABC       isTouchedOneWall__4TMapCFffff
 0001:80189B80       isInArea__4TMapCFff
 0001:80189BC4       getIllegalCheckData__4TMapFv
 0001:80189E34       initStage__Fv
 0001:80189FCC       return
 0001:80189FE4       initStageCommon__Fv
 0001:8018A2C4       initPinnaParco__Fv
 0001:8018A3A8       initMare__Fv
 0001:8018A698       initMonte__Fv
 0001:8018C18C       checkGround__17TMapCollisionDataCFfffUcPPC12TBGCheckData
 0001:8018CFC8       __ct__17TMapCollisionDataFv
 0001:8018D0B4       init__17TMapCollisionDataFR20JSUMemoryInputStream
 0001:8018D4DC       __ct__16TBGCheckListRootFv
 0001:8018D520       initMoveCollision__17TMapCollisionDataFv
 0001:8018D55C       __ct__16TBGCheckListWarpFv
 0001:8018D590       __ct__12TBGCheckListFv
 0001:8018D5AC       setPreNode__16TBGCheckListWarpFP12TBGCheckList
 0001:8018D5B4       setPreNode__12TBGCheckListFP12TBGCheckList
 0001:8018D5B8       __sinit_MapCollisionData_cpp
 0001:8018D8BC       __ct__17TMapCollisionWarpFv
 0001:8018D94C       init__17TMapCollisionWarpFPCcUsPC10TLiveActor
 0001:8018D9B8       remove__17TMapCollisionWarpFv
 0001:8018DA28       setUpTrans__17TMapCollisionWarpFRCQ29JGeometry8TVec3<f>
 0001:8018DAC0       setUp__17TMapCollisionWarpFv
 0001:8018DB90       __ct__17TMapCollisionMoveFv
 0001:8018DC10       init__17TMapCollisionMoveFPCcUsPC10TLiveActor
 0001:8018DD24       moveTrans__17TMapCollisionMoveFRCQ29JGeometry8TVec3<f>
 0001:8018DD88       move__17TMapCollisionMoveFv
 0001:8018DE2C       __ct__19TMapCollisionStaticFv
 0001:8018DEB8       init__19TMapCollisionStaticFPCcUsPC10TLiveActor
 0001:8018DF34       setUp__19TMapCollisionStaticFv
 0001:8018DF88       init__17TMapCollisionBaseFPCcUsPC10TLiveActor
 0001:8018E140       setAllActor__17TMapCollisionBaseFPC10TLiveActor
 0001:8018E170       setAllData__17TMapCollisionBaseFs
 0001:8018E1A0       setAllBGType__17TMapCollisionBaseFUs
 0001:8018E1CC       setVertexData__17TMapCollisionBaseFUlRCQ29JGeometry8TVec3<f>RCQ29JGeometry8TVec3<f>RCQ29JGeometry8TVec3<f>
 0001:8018E22C       moveSRT__17TMapCollisionMoveFRCQ29JGeometry8TVec3<f>RCQ29JGeometry8TVec3<f>RCQ29JGeometry8TVec3<f>
 0001:8018E318       remove__19TMapCollisionStaticFv
 0001:8018E31C       __ct__20TMapCollisionManagerFUsPCcPC10TLiveActor
 0001:8018E394       init__20TMapCollisionManagerFPCcUsPCc
 0001:8018E5E0       changeCollision__20TMapCollisionManagerFUl
 0001:8018E6CC       nullsub_15
 0001:8018EDB0       __dt__9TMapEventFv
 0001:8018EE34       startControl__9TMapEventFv
 0001:8018EE40       getBuilding__9TMapEventCFi
 0001:8018EE5C       __ct__9TMapEventFPCc
 0001:8018EEA8       __dt__13TEventWatcherFv
 0001:8018EF1C       load__9TMapEventFR20JSUMemoryInputStream
 0001:8018EF5C       perform__9TMapEventFUlPQ26JDrama9TGraphics
 0001:8018F048       finishControl__9TMapEventFv
 0001:8018F09C       isFinishedAll__9TMapEventCFv
 0001:8018F45C       watch__13TMapEventSinkFv
 0001:8018F464       initWithBuildingNum__24TMapEventSinkShadowMarioFR20JSUMemoryInputStream
 0001:8018F778       __as__16J3DTransformInfoFRC16J3DTransformInfo
 0001:8018F7C4       load__19TMapEventSinkBiancoFR20JSUMemoryInputStream
 0001:8018F8BC       loadAfter__19TMapEventSinkBiancoFv
 0001:8018FA34       watch__19TMapEventSinkBiancoFv
 0001:8018FB48       startControl__19TMapEventSinkBiancoFv
 0001:8018FCD0       control__19TMapEventSinkBiancoFv
 0001:8018FFB4       loadAfter__29TMapEventSinkInPollutionResetFv
 0001:801900E8       makeBuildingRecovered__29TMapEventSinkInPollutionResetFi
 0001:80190284       loadAfter__24TMapEventSinkInPollutionFv
 0001:801903C4       watch__24TMapEventSinkInPollutionFv
 0001:80190474       __ct__13TMapEventSinkFPCc
 0001:80190510       load__13TMapEventSinkFR20JSUMemoryInputStream
 0001:8019061C       initWithBuildingNum__13TMapEventSinkFR20JSUMemoryInputStream
 0001:801906CC       initBuilding__13TMapEventSinkFiR20JSUMemoryInputStream
 0001:8019077C       startControl__13TMapEventSinkFv
 0001:80190938       control__13TMapEventSinkFv
 0001:80190A98       rising__13TMapEventSinkFv
 0001:80190B34       finishControl__13TMapEventSinkFv
 0001:80190BB8       makeBuildingRecovered__13TMapEventSinkFi
 0001:80190CE8       isFinishedAll__13TMapEventSinkCFv
 0001:80190D58       getSinkOffsetY__13TMapEventSinkCFv
 0001:80190D88       getBuilding__13TMapEventSinkCFi
 0001:80190DAC       __dt__19TMapEventSinkBiancoFv
 0001:80190E40       __dt__29TMapEventSinkInPollutionResetFv
 0001:80190ED4       __dt__24TMapEventSinkInPollutionFv
 0001:80190F68       __dt__13TMapEventSinkFv
 0001:80190FFC       __sinit_MapEventSink_cpp
 0001:801912F8       initCheckData__17TMapCollisionBaseFsUsPC10TLiveActor
 0001:801913AC       initAllCheckData__17TMapCollisionBaseFsPCfUsPC10TLiveActor
 0001:801915E8       update__17TMapCollisionBaseFv
 0001:8019167C       updateTrans__17TMapCollisionBaseFRCQ29JGeometry8TVec3<f>
 0001:80191814       setCheckData__17TMapCollisionBaseFPCfPCsP12TBGCheckDatai
 0001:80191A78       setList__17TMapCollisionMoveFv
 0001:80191ADC       setVertex__12TBGCheckDataFRCQ29JGeometry8TVec3<f>RCQ29JGeometry8TVec3<f>RCQ29JGeometry8TVec3<f>
 0001:80192300       addCheckDataToGrid__17TMapCollisionDataFP12TBGCheckDatai
 0001:80192C90       __dt__17TMirrorMapDrawBufFv
 0001:801934DC       scaleAdd__Q29JGeometry8TVec3<f>fRCQ29JGeometry8TVec3<f>RCQ29JGeometry8TVec3<f>
 0001:80193510       nullsub_44
 0001:80194460       __ct__16TMapModelManagerFPCc
 0001:801944A4       init__16TMapModelManagerFv
 0001:80194770       __as__13J3DTexMtxInfoRC13J3DTexMtxInfo
 0001:80194A80       __dt__Q27JGadget68TList<16MActorSubAnmInfo,Q27JGadget30TAllocator<16MActorSubAnmInfo>>Fv
 0001:80194EA0       __ct__8TMapWarpFv
 0001:801951E8       initModel__8TMapWarpFv
 0001:801959AC       __ct__17TMapObjSoundGroupFPCc
 0001:80195A20       load__17TMapObjSoundGroupFR20JSUMemoryInputStream
 0001:80195B14       perform__17TMapObjSoundGroupFUlPQ26JDrama9TGraphics
 0001:80195D80       __ct__13TMapStaticObjFPCc
 0001:80195DE4       load__13TMapStaticObjFR20JSUMemoryInputStream
 0001:80195E28       loadAfter__13TMapStaticObjFv
 0001:80195E6C       init__13TMapStaticObjPCc
 0001:80196264       initModel__13TMapStaticObjFPCc
 0001:80196394       initUnique__13TMapStaticObjFv
 0001:801965B4       def_8019659C
 0001:80196614       perform__13TMapStaticObjFUlPQ26JDrama9TGraphics
 0001:80196904       getModelData__13TMapStaticObjCFv
 0001:80196914       __dt__14TMapModelActorFv
 0001:80196998       __dt__13TMapStaticObjFv
 0001:801985DC       __sinit_MapWire_cpp
 0001:80198D0C       search__Q26JDrama8TNameRefFPCc
 0001:80198D64       getRootNameRef__Q26JDrama11TNameRefGenFv
 0001:80198D6C       getInstance__Q26JDrama11TNameRefGenFv
 0001:80198D74       __dt__13TMapWireActorFv
 0001:80199418       getTipPoints__13TMapWireActorCFPQ29JGeometry8TVec3<f>PQ29JGeometry8TVec3<f>
 0001:80199454       getPosInWire__13TMapWireActorCFv
 0001:80199914       __ct__7TMapXluFv
 0001:80199F4C       action__15TPollutionLayerFv
 0001:8019A318       getPlaneType__15TPollutionLayerCFv
 0001:8019A7DC       getTexPosS__15TPollutionLayerCFf
 0001:8019A808       isInArea__15TPollutionLayerCFfff
 0001:8019ABAC       pushTask__18TPollutionTexStampFUcUsUsUss
 0001:8019AFC0       stampIsCleanType__22TPollutionCounterLayerCFUs
 0001:8019B120       pushModelStampTask__22TPollutionCounterLayerFUcP8J3DModel
 0001:8019BAC4       initGXforStamp__FPCUcUsUsi
 0001:8019C208       initGXforPollutionLayer__FiUsUcUc
 0001:8019C5C8       drawTex__FUsUs
 0001:8019C970       registerPollutionObj__20TPollutionCounterObjFP13TPollutionObjPUl
 0001:8019CCEC       setEular__Q29JGeometry64TRotation3<Q29JGeometry38TMatrix34<Q29JGeometry13SMatrix34C<f>>>Fsss
 0001:8019CD94       initDrawObjGX__Fv
 0001:8019D47C       __dt__17TPollutionManagerFv
 0001:8019D8B0       def_8019D778
 0001:8019DA6C       isPolluted__17TPollutionManagerCfff
 0001:8019DB20       getPollutionDegree__17TPollutionManagerCFv
 0001:8019DC18       getPollutionType__17TPollutionManagerCfff
 0001:8019DCD4       stampGround__17TPollutionManagerFUsffff
 0001:8019DDB4       clean__17TPollutionManagerFffff
 0001:8019DE84       stamp__17TPollutionManagerFUsffff
 0001:8019DFE4       getPlaneType__25TPollutionLayerWallMinusXCFv
 0001:8019DFEC       getTexPosS__25TPollutionLayerWallMinusXCFf
 0001:8019E018       isInArea__24TPollutionLayerWallPlusXCFfff
 0001:8019E058       isInAreaSize__24TPollutionLayerWallPlusXCFffff
 0001:8019E0A8       getTexPosT__23TPollutionLayerWallBaseCFf
 0001:8019E0D4       getTexResource__15TPollutionLayerFPCc
 0001:8019E0E4       newJointObj__15TPollutionLayerCFv
 0001:8019E124       getJ3DModelDataFlag__15TPollutionLayerCFv
 0001:8019E12C       getPlaneType__25TPollutionLayerWallMinusZCFv
 0001:8019E134       getTexPosS__25TPollutionLayerWallMinusZCFf
 0001:8019E160       isInArea__24TPollutionLayerWallPlusZCFfff
 0001:8019E1A0       isInAreaSize__24TPollutionLayerWallPlusZCFffff
 0001:8019E4EC       __ct__13TPollutionObjFv
 0001:8019E690       getTexPosT__15TPollutionLayerCFf
 0001:8019E6DC       updateDepthMap__13TPollutionObjFv
 0001:8019E9B4       newJointObj__13TPollutionObjCFv
 0001:8019ED18       __ct__13TPollutionPosFv
 0001:8019ED48       init__13TPollutionPosFP15TPollutionLayerffPUcii
 0001:8019ED90       worldToTexSize__13TPollutionPosCFf
 0001:8019EDB0       worldToDepth__13TPollutionPosCFf
 0001:8019EDD8       isProhibit__13TPollutionPosCFii
 0001:8019EE54       isSame__13TPollutionPosCFiif
 0001:8019EF28       getDepthWorld__13TPollutionPosCFii
 0001:8019EFA4       getEdgeDegree__13TPollutionPosCFii
 0001:8019F0F8       __sinit_PollutionPos_cpp
 0001:8019FF4C       load__4TSkyFR20JSUMemoryInputStream
 0001:801A06DC       __ct__19TMapEventSirenaSinkFPCc
 0001:801A08DC       watch__19TMapEventSirenaSinkFv
 0001:801A0CF0       isInAreaSize__15TPollutionLayerCFffff
 0001:801A0D40       __ct__15TPollutionLayerFv
 0001:801A0E00       initJointModel__15TPollutionLayerFP18TJointModelManagerPCcP13MActorAnmData
 0001:801A0FB4       initLayerInfo__15TPollutionLayerFPC19TPollutionLayerInfo
 0001:801A10B4       initTexImage__15TPollutionLayerFPCc
 0001:801A1288       perform__15TPollutionLayerFUlPQ26JDrama9TGraphics
 0001:801A12E8       isPolluted__15TPollutionLayerCFfff
 0001:801A1440       stamp__15TPollutionLayerFUsffff
 0001:801A158C       cleaned__15TPollutionLayerFffff
 0001:801A1960       appearItem__15TPollutionLayerFfff
 0001:801A1964       stampModel__15TPollutionLayerFP8J3DModel
 0001:801A19DC       __ct__23TPollutionLayerWallBaseFv
 0001:801A1A24       initLayerInfo__24TPollutionLayerWallPlusXFPC19TPollutionLayerInfo
 0001:801A1A78       stamp__24TPollutionLayerWallPlusXFUsffff
 0001:801A1B78       getTexPosS__24TPollutionLayerWallPlusXCFf
 0001:801A1BA4       initLayerInfo__24TPollutionLayerWallPlusZFPC19TPollutionLayerInfo
 0001:801A1BE8       stamp__24TPollutionLayerWallPlusZFUsffff
 0001:801A1CE8       initJointModel__19TPollutionLayerWaveFP18TJointModelManagerPCcP13MActorAnmData
 0001:801A1DFC       getTexResource__19TPollutionLayerWaveFPCc
 0001:801A1E3C       perform__19TPollutionLayerWaveFUlPQ26JDrama9TGraphics
 0001:801A2220       getPlaneType__24TPollutionLayerWallPlusXCFv
 0001:801A2228       getPlaneType__24TPollutionLayerWallPlusZCFv
 0001:801A2230       getPlaneType__19TPollutionLayerWaveCFv
 0001:801A2534       loadAfter__14TPollutionTestFv
 0001:801A2554       __dt__14TPollutionTestFv
 0001:801A25C8       perform__14TPollutionTestFUlPQ26JDrama9TGraphics
 0001:801A28F0       init__20TMapCheckGroundPlaneFiif
 0001:801A2ED4       loadAfter__11TMarineSnowFv
 0001:801A3038       __ct__12TBGCheckDataFv
 0001:801A3090       getPlaneType__12TBGCheckDataFv
 0001:801A3124       getActiveJumpPower__12TBGCheckDataCFv
 0001:801A3188       __sinit_MapData_cpp
 0001:801A3484       __dt__26TDolpicEventRiccoMammaGateFv
 0001:801A3518       __ct__26TDolpicEventRiccoMammaGateFPCc
 0001:801A35A0       load__26TDolpicEventRiccoMammaGateFR20JSUMemoryInputStream
 0001:801A3820       loadAfter__26TDolpicEventRiccoMammaGateFv
 0001:801A38F8       watch__26TDolpicEventRiccoMammaGateFv
 0001:801A3B08       control__26TDolpicEventRiccoMammaGateFv
 0001:801A3CF8       isFinishedAll__26TDolpicEventRiccoMammaGateCFv
 0001:801A3D28       __ct__22TDolpicEventBiancoGateFPCc
 0001:801A3D74       loadAfter__22TDolpicEventBiancoGateFv
 0001:801A3E00       watch__22TDolpicEventBiancoGateFv
 0001:801A3E70       control__22TDolpicEventBiancoGateFv
 0001:801A3F24       isFinishedAll__22TDolpicEventBiancoGateCFv
 0001:801A3F54       __dt__22TDolpicEventBiancoGateFv
 0001:801A4368       __ct__19TMareEventBumpyWallFPCc
 0001:801A5F00       __ct__13TMareWallRockFv
 0001:801A8064       get__Q25JMath13TRandom_fast_v
 0001:801A82B0       setMax__Q29JGeometry8TVec3<f>RCQ29JGeometry8TVec3<f>
 0001:801A82FC       setMin__Q29JGeometry8TVec3<f>RCQ29JGeometry8TVec3<f>
 0001:801AA6CC       draw_mist__FUsUsUsUsPv
 0001:801AAE98       clearEFB_alpha__9@unnamed@FssssUc
 0001:801AC6F4       nullsub_18
 0001:801AC8D8       render__22TBathWaterMeshRendererFPQ26JDrama9TGraphicsRC12TBathtubDataPP10TBathWaterPP16TBathWaterParamsi
 0001:801ADE5C       render__22TBathWaterFlatRendererFPQ26JDrama9TGraphicsRC12TBathtubDataPP10TBathWaterPP16TBathWaterParamsi
 0001:801AEBE4       getLivingTime__14TMapObjGeneralCFv
 0001:801AEBEC       checkIllegalAttr__14TMapObjGeneralCFv
 0001:801AEBF0       __ct__11TWoodBarrelFPCc
 0001:801AEC3C       __dt__14TMapObjGeneralFv
 0001:801AF6A8       __ct__11TMapObjBaseFPCc
 0001:801AF750       load__11TMapObjBaseFR20JSUMemoryInputStream
 0001:801AF834       loadAfter__11TMapObjBaseFv
 0001:801AF874       initAndRegister__11TMapObjBaseFPCc
 0001:801AF944       receiveMessage__11TMapObjBaseFP9THitActorUl
 0001:801AF9A0       calcRootMatrix__11TMapObjBaseFv
 0001:801AFA4C       getRootJointMtx__11TMapObjBaseCFv
 0001:801AFA80       getShadowType__11TMapObjBaseFv
 0001:801AFB48       perform__11TMapObjBaseFUlPQ26JDrama9TGraphics
 0001:801AFF74       setGroundCollision__11TMapObjBaseFv
 0001:801B00F8       control__11TMapObjBaseFv
 0001:801B0270       ensureTakeSituation__11TMapObjBaseFv
 0001:801B02D0       touchActor__11TMapObjBaseFP9THitActor
 0001:801B037C       touchPlayer__11TMapObjBaseFP9THitActor
 0001:801B03B8       touchEnemy__11TMapObjBaseFP9THitActor
 0001:801B03F4       touchBoss__11TMapObjBaseFP9THitActor
 0001:801B0430       makeObjAppeared__11TMapObjBaseFv
 0001:801B0738       makeObjDead__11TMapObjBaseFv
 0001:801B08F4       makeObjDefault__11TMapObjBaseFv
 0001:801B09D4       startAnim__11TMapObjBaseFUs
 0001:801B0BC8       startBck__11TMapObjBaseFPCc
 0001:801B0BF8       startControlAnim__11TMapObjBaseFUs
 0001:801B0C74       animIsFinished__11TMapObjBaseCFv
 0001:801B0CF4       hasAnim__11TMapObjBaseCFUs
 0001:801B0D3C       hasModelOrAnimData__11TMapObjBaseCFUs
 0001:801B0D90       startSound__11TMapObjBaseFUs
 0001:801B0E88       soundBas__11TMapObjBaseFUlff
 0001:801B0F2C       setUpMapCollision__11TMapObjBaseFUs
 0001:801B1058       setUpCurrentMapCollision__11TMapObjBaseFv
 0001:801B1130       removeMapCollision__11TMapObjBaseFv
 0001:801B118C       setObjHitData__11TMapObjBaseFUs
 0001:801B1238       sleep__11TMapObjBaseFv
 0001:801B12AC       awake__11TMapObjBaseFv
 0001:801B12F0       getSDLModelFlag__11TMapObjBaseCFv
 0001:801B12F8       changeObjSRT__11TMapObjBaseFRCQ29JGeometry8TVec3<f>RCQ29JGeometry8TVec3<f>RCQ29JGeometry8TVec3<f>
 0001:801B1368       changeObjMtx__11TMapObjBaseFPA4_f
 0001:801B1764       getFlushTime__14TMapObjGeneralCFv
 0001:801B176C       initKeyCode__14TMapObjManagerFv
 0001:801B17DC       initMapObj__14TMapObjGeneralFv
 0001:801B1824       initMapObj__11TMapObjBaseFv
 0001:801B1AD0       initActorData__11TMapObjBaseFv
 0001:801B1C34       initModelData__11TMapObjBaseFv
 0001:801B1D64       makeMActors__11TMapObjBaseFv
 0001:801B2070       initMActor__11TMapObjBaseFPCcPCcUl
 0001:801B211C       initBckMoveData__11TMapObjBaseFv
 0001:801B2204       initObjCollisionData__11TMapObjBaseFv
 0001:801B238C       initMapCollisionData__11TMapObjBaseFv
 0001:801B2448       checkIllegalAttr__11TMapObjBaseCFv
 0001:801B244C       initUnique__11TMapObjBaseFv
 0001:801B2F94       __ct__14TMapObjGeneralFPCc
 0001:801B2FF0       loadAfter__14TMapObjGeneralFv
 0001:801B305C       receiveMessage__14TMapObjGeneralFP9THitActorUl
 0001:801B3364       perform__14TMapObjGeneralFUlPQ26JDrama9TGraphics
 0001:801B345C       calcRootMatrix__14TMapObjGeneralFv
 0001:801B35F8       control__14TMapObjGeneralFv
 0001:801B36B8       bind__14TMapObjGeneralFv
 0001:801B3938       calcVelocity__14TMapObjGeneralFv
 0001:801B3ADC       checkGroundCollision__14TMapObjGeneralFPQ29JGeometry8TVec3<f>
 0001:801B3B8C       touchGround__14TMapObjGeneralFPQ29JGeometry8TVec3<f>
 0001:801B3D64       checkRoofCollision__14TMapObjGeneralFPQ29JGeometry8TVec3<f>
 0001:801B3DF0       touchRoof__14TMapObjGeneralFPQ29JGeometry8TVec3<f>
 0001:801B3DFC       checkWallCollision__14TMapObjGeneralFPQ29JGeometry8TVec3<f>
 0001:801B3EE4       touchWall__14TMapObjGeneralFPQ29JGeometry8TVec3<f>P18TBGWallCheckRecord
 0001:801B3F2C       work__14TMapObjGeneralFv
 0001:801B400C       def_801B3F58
 0001:801B401C       appear__14TMapObjGeneralFv
 0001:801B4114       kill__14TMapObjGeneralFv
 0001:801B4194       ensureTakeSituation__14TMapObjGeneralFv
 0001:801B4200       hold__14TMapObjGeneralFP10TTakeActor
 0001:801B4274       recover__14TMapObjGeneralFv
 0001:801B437C       touchPlayer__14TMapObjGeneralFP9THitActor
 0001:801B43D0       touchWater__14TMapObjGeneralFP9THitActor
 0001:801B444C       receiveMessageFromPlayer__14TMapObjGeneralFv
 0001:801B4470       makeObjBuried__14TMapObjGeneralFv
 0001:801B44DC       makeObjRecovered__14TMapObjGeneralFv
 0001:801B4528       appeared__14TMapObjGeneralFv
 0001:801B4580       appearing__14TMapObjGeneralFv
 0001:801B4644       breaking__14TMapObjGeneralFv
 0001:801B46C4       sinking__14TMapObjGeneralFv
 0001:801B47E4       recovering__14TMapObjGeneralFv
 0001:801B48F8       holding__14TMapObjGeneralFv
 0001:801B4950       touchingPlayer__14TMapObjGeneralFv
 0001:801B49A4       touchingWater__14TMapObjGeneralFv
 0001:801B49F8       thrown__14TMapObjGeneralFv
 0001:801B4BDC       put__14TMapObjGeneralFv
 0001:801B4CEC       sink__14TMapObjGeneralFv
 0001:801B4D54       waitToAppear__14TMapObjGeneralFl
 0001:801B4D78       waitingToRecover__14TMapObjGeneralFv
 0001:801B4DD0       waitingToAppear__14TMapObjGeneralFv
 0001:801B4F30       isPollutedGround__14TMapObjGeneralCFRCQ29JGeometry8TVec3<f>
 0001:801B5320       __dt__18TMapObjBaseManagerFv
 0001:801B53B4       __ct__18TMapObjBaseManagerFPCc
 0001:801B53FC       load__18TMapObjBaseManagerFR20JSUMemoryInputStream
 0001:801B5454       getObjNumWithActorType__18TMapObjBaseManagerCFUl
 0001:801B54A8       createModelData__18TMapObjBaseManagerFv
 0001:801B54DC       clipActors__18TMapObjBaseManagerFPQ26JDrama9TGraphics
 0001:801B5510       getActorTypeByEventID__18TMapObjBaseManagerFUl
 0001:801B5610       newAndRegisterObjByEventID__18TMapObjBaseManagerFUlPCc
 0001:801B5C84       newAndRegisterObj__18TMapObjBaseManagerFPCcRCQ29JGeometry8TVec3<f>RCQ29JGeometry8TVec3<f>RCQ29JGeometry8TVec3<f>
 0001:801B5DB0       newUniqueObjByName__FPCc
 0001:801B6980       __dt__18TMapObjChangeStageFv
 0001:801B6C24       __dt__5TItemFv
 0001:801B6CC0       newItemByName__FPCc
 0001:801B6D54       makeObjAppeared__18TMapObjBaseManagerFUl
 0001:801B6E3C       makeObjAppear__18TMapObjBaseManagerFUl
 0001:801B6F24       makeObjAppear__18TMapObjBaseManagerFfffUlb
 0001:801B709C       __ct__14TMapObjManagerFPCc
 0001:801B71CC       load__14TMapObjManagerFR20JSUMemoryInputStream
 0001:801B768C       loadAfter__14TMapObjManagerFv
 0001:801B7994       __dt__14TMapObjManagerFv
 0001:801B7A28       hasMapCollision__14TMapObjManagerCFv
 0001:801B7DD0       __ct__11TMapObjTurnFPCc
 0001:801B7E38       __dt__12THideObjBaseFv
 0001:801B89F4       emitAndScale__11TMapObjBaseCFlUcPCQ29JGeometry8TVec3<f>RCQ29JGeometry8TVec3<f>
 0001:801B8AEC       emitAndScale__11TMapObjBaseCFlUcPCQ29JGeometry8TVec3<f>
 0001:801B8D88       marioHipAttack__11TMapObjBaseCFv
 0001:801B8DF8       marioHeadAttack__11TMapObjBaseCFv
 0001:801B8E5C       marioIsOn__11TMapObjBaseCFv
 0001:801B8EAC       marioIsOn__11TMapObjBaseFPC10TLiveActor
 0001:801B8EFC       sendMsg__11TMapObjBaseFUlUl
 0001:801B8F8C       waterHitPlane__11TMapObjBaseFP9THitActor
 0001:801B9018       getWaterPos__11TMapObjBaseFP9THitActor
 0001:801B9030       getWaterSpeed__11TMapObjBaseFP9THitActor
 0001:801B9048       getWaterPlane__11TMapObjBaseFP9THitActor
 0001:801B9060       getWaterID__11TMapObjBaseFP9THitActor
 0001:801B9068       getDistance__11TMapObjBaseCFRCQ29JGeometry8TVec3<f>
 0001:801B90E4       getDistanceXZ__11TMapObjBaseCFRCQ29JGeometry8TVec3<f>
 0001:801B9650       nullsub_19
 0001:801B9654       calcReflectingVelocity__11TMapObjBaseCFPC12TBGCheckDatafPQ29JGeometry8TVec3<f>
 0001:801B9C24       updateObjMtx__11TMapObjBaseFv
 0001:801BA1C8       setJointTransY__11TMapObjBaseFP8J3DJointf
 0001:801BA268       getJointScaleY__11TMapObjBaseFP8J3DJoint
 0001:801BA270       setJointScaleY__11TMapObjBaseFP8J3DJointf
 0001:801BA354       newAndInitBuildingCollisionMove__11TMapObjBaseFiP10TLiveActor
 0001:801BA3E8       newAndInitBuildingCollisionWarp__11TMapObjBaseFiP10TLiveActor
 0001:801BA47C       joinToGroup__11TMapObjBaseFPCcP9THitActor
 0001:801BA520       startAllAnim__11TMapObjBaseFP6MActorPCc
 0001:801BA6CC       isFruit__11TMapObjBaseFP9THitActor
 0001:801BA7A0       isCoin__11TMapObjBaseFP9THitActor
 0001:801BA814       throwObjFromPointWithRot__11TMapObjBaseFP11TMapObjBaseRCQ29JGeometry8TVec3<f>RCQ29JGeometry8TVec3<f>ff
 0001:801BA8D8       throwObjToFrontFromPoint__11TMapObjBaseCFP11TMapObjBaseRCQ29JGeometry8TVec3<f>ff
 0001:801BA9EC       throwObjToFront__11TMapObjBaseCFP11TMapObjBasefff
 0001:801BAB04       checkOnManhole__11TMapObjBaseFv
 0001:801BAB8C       loadHideObjInfo__11TMapObjBaseFR20JSUMemoryInputStreamPlPfPfPl
 0001:801BAC68       isDemo__11TMapObjBaseFv
 0001:801BACC0       isHideObj__11TMapObjBaseFP9THitActor
 0001:801BB200       __ct__10TNozzleBoxFPCc
 0001:801BBE9C       __ct__9TEggYoshiFPCc
 0001:801BBEF0       load__9TEggYoshiFR20JSUMemoryInputStream
 0001:801BC12C       receiveMessage__9TEggYoshiFP9THitActorUl
 0001:801BC398       startFruit__9TEggYoshiFv
 0001:801BC468       perform__9TEggYoshiFUlPQ26JDrama9TGraphics
 0001:801BC5A8       control__9TEggYoshiFv
 0001:801BC7AC       def_801BC5E4
 0001:801BC7C4       touchActor__9TEggYoshiFP9THitActor
 0001:801BC898       touchFruit__9TEggYoshiFP9THitActor
 0001:801BCA1C       decideRandomLoveFruit__9TEggYoshiFv
 0001:801BCB54       __ct__6TShineFPCc
 0001:801BCC18       loadBeforeInit__6TShineFR20JSUMemoryInputStream
 0001:801BCD08       loadAfter__6TShineFv
 0001:801BCD70       initMapObj__6TShineFv
 0001:801BCDD4       makeMActors__6TShineFv
 0001:801BCED0       kill__6TShineFv
 0001:801BCF04       appearWithDemo__6TShineFPCc
 0001:801BCFB0       appearSimple__6TShineFi
 0001:801BD0B8       appearWithTimeCallback__6TShineFUlUl
 0001:801BD120       appearWithTime__6TShineFiiii
 0001:801BD334       touchPlayer__6TShineFP9THitActor
 0001:801BD3DC       receiveMessage__6TShineFP9THitActorUl
 0001:801BD590       perform__6TShineFUlPQ26JDrama9TGraphics
 0001:801BD5F0       control__6TShineFv
 0001:801BDBD0       def_801BD69C
 0001:801BDDA8       calc__6TShineFv
 0001:801BE088       __ct__9TCoinBlueFPCc
 0001:801BE108       __dt__5TCoinFv
 0001:801BE264       taken__9TCoinBlueFP9THitActor
 0001:801BE398       __ct__8TCoinRedFPCc
 0001:801BE428       taken__8TCoinRedFP9THitActor
 0001:801BE528       __ct__10TCoinEmptyFPCc
 0001:801BE608       __ct__5TCoinFPCc
 0001:801BE674       initMapObj__5TCoinFv
 0001:801BE6E4       loadAfter__5TCoinFv
 0001:801BE7CC       perform__5TCoinFUlPQ26JDrama9TGraphics
 0001:801BEA2C       makeObjAppeared__5TCoinFv
 0001:801BEA70       appear__5TCoinFv
 0001:801BEC44       makeObjDead__5TCoinFv
 0001:801BEC88       taken__5TCoinFP9THitActor
 0001:801BEE14       __ct__5TItemFPCc
 0001:801BEE68       load__5TItemFR20JSUMemoryInputStream
 0001:801BEEA0       initMapObj__5TItemFv
 0001:801BEEDC       perform__5TItemFUlPQ26JDrama9TGraphics
 0001:801BEF68       appear__5TItemFv
 0001:801BEFB4       killByTimer__5TItemFi
 0001:801BEFE8       appearing__5TItemFv
 0001:801BF0CC       calc__5TItemFv
 0001:801BF244       calcRootMatrix__5TItemFv
 0001:801BF270       receiveMessage__5TItemFP9THitActorUl
 0001:801BF2C0       touchPlayer__5TItemFP9THitActor
 0001:801BF33C       taken__5TItemFP9THitActor
 0001:801BF3C8       appeared__5TItemFv
 0001:801BF558       __dt__9TEggYoshiFv
 0001:801BF5F4       getHitObjNumMax__9TEggYoshiFv
 0001:801BF5FC       __dt__6TShineFv
 0001:801BFC54       __dt__12TItemManagerFv
 0001:801BFCE8       hasMapCollision__12TItemManagerCFv
 0001:801BFCF0       __ct__12TItemManagerFPCc
 0001:801BFD7C       load__12TItemManagerFR20JSUMemoryInputStream
 0001:801BFDFC       loadAfter__12TItemManagerFv
 0001:801BFED0       newAndRegisterCoinReal__12TItemManagerFv
 0001:801BFF20       perform__12TItemManagerFUlPQ26JDrama9TGraphics
 0001:801BFFE4       newAndRegisterCoin__12TItemManagerFUl
 0001:801C00CC       makeShineAppearWithDemoOffset__12TItemManagerFPCcPCcfff
 0001:801C018C       makeShineAppearWithDemo__12TItemManagerFPCcPCcfff
 0001:801C082C       __ct__14TRedCoinSwitchFPCc
 0001:801C088C       load__14TRedCoinSwitchFR20JSUMemoryInputStream
 0001:801C0940       loadAfter__14TRedCoinSwitchFv
 0001:801C09E4       control__14TRedCoinSwitchFv
 0001:801C0A9C       receiveMessage__14TRedCoinSwitchFP9THitActorUl
 0001:801C0B5C       __ct__13TMapObjSwitchFPCc
 0001:801C0BF0       load__13TMapObjSwitchFR20JSUMemoryInputStream
 0001:801C0CF8       receiveMessage__13TMapObjSwitchFP9THitActorUl
 0001:801C0E18       control__13TMapObjSwitchFv
 0001:801C109C       __ct__17TMapObjWaterSprayFPCc
 0001:801C1618       touchPlayer__16TMapObjStartDemoFP9THitActor
 0001:801C1720       load__18TMapObjChangeStageFR20JSUMemoryInputStream
 0001:801C1770       touchPlayer__18TMapObjChangeStageFP9THitActor
 0001:801C1AE0       __ct__8TManholeFPCc
 0001:801C1C00       makeManholeUnuseful__8TManholeFPC11TMapObjBase
 0001:801C2480       __ct__5TDoorFPCc
 0001:801C26A0       __dt__13TMapObjSwitchFv
 0001:801C3AC4       __ct__10TLeanBlockFPCc
 0001:801C54DC       __ct__11TBiancoBellFPCc
 0001:801C5804       __ct__15TLampSeesawMainFPCc
 0001:801C5C24       __ct__11TLampSeesawFPCc
 0001:801C6A1C       __ct__19TBiancoMiniWindmillFPCc
 0001:801C7468       __ct__16TBiancoWatermillFPCc
 0001:801C75B8       nullsub_11
 0001:801CD9D8       getMActor__10TLiveActorCFv
 0001:801D1E2C       __ct__11TSandCastleFPCc
 0001:801D2880       control__13TSandBombBaseFv
 0001:801D2ADC       def_801D28CC
 0001:801D3794       getDepthAtFloating__11TMapObjBallFv
 0001:801D44F0       moveObject__8TAmiKingFv
 0001:801D4B54       kill__15TBalloonKoopaJrFv
 0001:801D67BC       __ct__12TFerrisWheelFPC
 0001:801D79F4       calcRootMatrix__9TMareCorkFv
 0001:801DA7A0       __ct__14TCogwheelScaleFPCc
 0001:801DE564       __ct__12TMapObjPlaneFPCc
 0001:801E0238       __dt__11TRailMapObjFv
 0001:801E065C       __ct__14TBigWatermelonFPCc
 0001:801E06B4       __dt__11TMapObjBallFv
 0001:801E0A7C       startEvent__14TBigWatermelonFv
 0001:801E0C9C       control__14TBigWatermelonFv
 0001:801E1984       __ct__12TRandomFruitFPCc
 0001:801E1BF4       __ct__11TResetFruitFPCc
 0001:801E207C       getLivingTime__11TResetFruitCFv
 0001:801E21B4       killByTimer__11TResetFruitFi
 0001:801E29C4       def_801E23F4
 0001:801E2EA4       makeObjLiving__11TResetFruitFv
 0001:801E3A20       __ct__11TMapObjBallFPCc
 0001:801E3AC8       initMapObj__11TMapObjBallFv
 0001:801E3FBC       receiveMessage__11TMapObjBallFP9THitActorUl
 0001:801E40B4       control__11TMapObjBallFv
 0001:801E41C4       makeObjAppeared__11TMapObjBallFv
 0001:801E42BC       makeObjDefault__11TMapObjBallFv
 0001:801E4314       checkWallCollision__11TMapObjBallFPQ29JGeometry8TVec3<f>
 0001:801E43F0       calcCurrentMtx__11TMapObjBallFv
 0001:801E4820       touchActor__11TMapObjBallFP9THitActor
 0001:801E4EC8       touchWater__11TMapObjBallFP9THitActor
 0001:801E4FC8       kicked__11TMapObjBallFv
 0001:801E51E4       hold__11TMapObjBallFP10TTakeActor
 0001:801E527C       put__11TMapObjBallFv
 0001:801E52BC       touchGround__11TMapObjBallFPQ29JGeometry8TVec3<f>
 0001:801E5590       rebound__11TMapObjBallFPQ29JGeometry8TVec3<f>
 0001:801E5718       touchWaterSurface__11TMapObjBallFv
 0001:801E5744       touchPollution__11TMapObjBallFv
 0001:801E5770       touchWall__11TMapObjBallFPQ29JGeometry8TVec3<f>P18TBGWallCheckRecord
 0001:801E5AD4       touchRoof__11TMapObjBallFPQ29JGeometry8TVec3<f>
 0001:801E5F64       __dt__17TAirportEventSinkFv
 0001:801E5FF8       __ct__17TAirportEventSinkFPCc
 0001:801E605C       loadAfter__17TAirportEventSinkFv
 0001:801E60F0       watch__17TAirportEventSinkFv
 0001:801E61C0       control__17TAirportEventSinkFv
 0001:801E6234       finishControl__17TAirportEventSinkFv
 0001:801E62C4       __ct__14TAirportSwitchFPCc
 0001:801E7554       receiveMessage__11TBellDolpicFP9THitActorUl
 0001:801E7CE8       receiveMessage__14TMonumentShineFP9THitActorUl
 0001:801EB6A8       def_801EB65C
 0001:801EBFD4       startOpen__10TModelGateFv
 0001:801EC048       loadAfter__10TModelGateFv
 0001:801EEE20       __ct__17TMapObjOptionWallFPCc
 0001:801EEE6C       init__17TMapObjOptionWallFv
 0001:801F0EB8       perform__11TRailMapObjFUlPQ26JDrama9TGraphics
 0001:801F0EF0       control__11TRailMapObjFv
 0001:801F100C       readRailFlag__11TRailMapObjFv
 0001:801F1064       getShadowType__11TRailMapObjFv
 0001:801F106C       setGroundCollision__11TRailMapObjFv
 0001:801F1108       load__11TRailMapObjFR20JSUMemoryInputStream
 0001:801F11E4       initMapObj__11TRailMapObjFv
 0001:801F1228       resetPosition__11TRailMapObjFv
 0001:801F12D4       calcRecycle__11TRailMapObjFv
 0001:801F1428       checkMarioRiding__11TRailMapObjFv
 0001:801F1520       moveToNextNode__11TRailMapObjFf
 0001:801F17D8       resetStep__11TRailMapObjFf
 0001:801F1858       initGraphTracer__11TRailMapObjFP9TGraphWeb
 0001:801F19CC       __ct__11TRailMapObjFPCc
 0001:801F1A3C       __dt__10TRollBlockFv
 0001:801F2548       __ct__6TFluffFPCc
 0001:801F5160       __ct__19THangingBridgeBoardFPCc
 0001:801F6030       __ct__16TMapObjTreeScaleFPCc
 0001:801F683C       __ct__11TMapObjTreeFPCc
 0001:801F7AE0       __ct__11TMapObjNailFPCc
 0001:801F8020       __ct__12TPoolManagerFPCc
 0001:801F8060       subWaterLevel__12TPoolManagerFPC12TBGCheckData
 0001:801F8C7C       nullsub_21
 0001:801FA150       getNozzleKind__14TNozzleTriggerCFv
 0001:801FC330       __ct__12TBathtubGripFP8TBathtubfP13MActorAnmDataPCc
 0001:801FD298       control__9TJumpBaseFv
 0001:801FD7AC       calcRootMatrix__9TJumpBaseFv
 0001:801FD85C       getRootJointMtx__9TJumpBaseCFv
 0001:801FD86C       receiveMessage__9TJumpBaseFP9THitActorUl
 0001:801FD9D4       ensureTakeSituation__9TJumpBaseFv
 0001:801FDA18       initMapObj__9TJumpBaseFv
 0001:801FDA88       __ct__9TJumpBaseFPCc
 0001:801FDAD4       perform__12TMushroom1upFUlPQ26JDrama9TGraphics
 0001:801FDBB4       control__12TMushroom1upFv
 0001:801FE02C       load__12TMushroom1upFR20JSUMemoryInputStream
 0001:801FE068       initMapObj__12TMushroom1upFv
 0001:801FE0E8       makeObjAppeared__12TMushroom1upFv
 0001:801FE1FC       touchPlayer__12TMushroom1upFP9THitActor
 0001:801FE294       __ct__12TMushroom1upFiPCc
 0001:801FE690       __dt__8TWoodBoxFv
 0001:801FE72C       __ct__8TWoodBoxFPCc
 0001:801FE7BC       __dt__13TBreakHideObjFv
 0001:801FE858       loadAfter__8TWoodBoxFv
 0001:801FE958       kill__8TWoodBoxFv
 0001:801FEC40       initMapObj__13TBreakHideObjFv
 0001:801FECF8       control__13TBreakHideObjFv
 0001:801FED74       receiveMessage__13TBreakHideObjFP9THitActorUl
 0001:801FEE40       kill__13TBreakHideObjFv
 0001:801FFED4       __ct__17TFruitBasketEventFPCc
 0001:802007EC       __ct__12THideObjBaseFPCc
 0001:80200854       load__12THideObjBaseFR20JSUMemoryInputStream
 0001:802008E0       loadAfter__12THideObjBaseFv
 0001:802009D8       receiveMessage__12THideObjBaseFP9THitActorUl
 0001:80200A6C       emitEffect__12THideObjBaseFv
 0001:80200AA4       appearObjFromPoint__12THideObjBaseFRCQ29JGeometry8TVec3<f>
 0001:80200BFC       appearObj__12THideObjBaseFf
 0001:80202B3C       peachParasolIn___8TBaseNPCFv
 0001:802031EC       npcMadIn__8TBaseNPCFv
 0001:802032F8       npcThrowing__8TBaseNPCFv
 0001:80204204       def_80204184
 0001:802059FC       requestNpcAnm___8TBaseNPCF14EnumNpcAnmKind27EnumNpcStopMotionBlendOnOff
 0001:80205A9C       setNpcAnm___8TBaseNPCF14EnumNpcAnmKind27EnumNpcStopMotionBlendOnOff
 0001:80205D5C       def_80205D40
 0001:80206298       __dt__8TBaseNPCFv
 0001:80206304       getPtrInitPollutionColor__8TBaseNPCCFv
 0001:80206358       def_80206350
 0001:802064B0       perform__8TBaseNPCFUlPQ26JDrama9TGraphics
 0001:80206D9C       updateForbidCount___8TBaseNPCFv
 0001:80206DDC       calcRootMatrix__8TBaseNPCFv
 0001:80206F98       moveObject__8TBaseNPCFv
 0001:802073E8       receiveMessage__8TBaseNPCFP9THitActorUl
 0001:802074AC       def_802074A4
 0001:802075B8       def_802075B0
 0001:80207604       getFocalPoint__8TBaseNPCCFv
 0001:80207638       getCursorPos__8TBaseNPCCFv
 0001:8020766C       isInMadSearchRange__8TBaseNPCCFv
 0001:802076D8       isInBodyTurnSearchRange__8TBaseNPCCFv
 0001:80207744       isNeedNeckStraight__8TBaseNPCCFv
 0001:80207894       isPartsAnmNpc__8TBaseNPCCFv
 0001:80207910       isBehaveToWaterNpc__8TBaseNPCCFv
 0001:80207948       isMadNpc__8TBaseNPCCFv
 0001:80207A1C       isBeTrampledNpc__8TBaseNPCC
 0001:80207BC4       isPollutionNpc__8TBaseNPCCFv
 0001:80207D34       isChild__8TBaseNPCCFv
 0001:80207DC8       isSpecialMareW__8TBaseNPCCFv
 0001:80207DF4       isSpecialMareM__8TBaseNPCCFv
 0001:80207E20       isNormalMareW__8TBaseNPCCFv
 0001:80207E40       isNormalMareM__8TBaseNPCCFv
 0001:80207E60       isSpecialMonteW__8TBaseNPCCFv
 0001:80207E80       isSpecialMonteM__8TBaseNPCCFv
 0001:80207EAC       isNormalMonteW__8TBaseNPCCFv
 0001:80207ED8       isNormalMonteM__8TBaseNPCCFv
 0001:80207F04       loadAfter__8TBaseNPCFv
 0001:80207F8C       load__8TBaseNPCFR20JSUMemoryInputStream
 0001:80208068       __ct__8TBaseNPCFUlPCc
 0001:8020A674       def_8020A5E0
 0001:8020A774       __ct__21TMareJellyFishManagerFPCc
 0001:8020A7B4       __dt__11TObjManagerFv
 0001:8020B840       __dt__21TMareJellyFishManagerFv
 0001:8020D514       getCurGraphIndex__12TGraphTracerCFv
 0001:8020D580       __ct__10TNpcParamsFv
 0001:8020D6A0       __ct__18TNpcSaveIndividualFPCc
 0001:8020DED4       __ct__14TNpcSaveNormalFv
 0001:8020E4D0       __ct__20TNpcSaveStageFarClipFv
 0001:8020E784       reviveOneSunflower__9TNpcEventFv
 0001:8020E960       initDownSunflowerNum__9TNpcEventFv
 0001:80210D3C       SMSGetNpcInitData__FUl
 0001:80210D70       setIndividualDifference___8TBaseNPCFR20JSUMemoryInputStream
 0001:80211654       init__8TBaseNPCFP12TLiveManager
 0001:80212988       SMS_InitChangeNpcColor__FPC6MActorPC16TColorChangeInfosPC8_GXColor
 0001:80212BB8       getBasNameTable__8TBaseNPCCFv
 0001:80212D1C       def_80212C64
 0001:80212D40       kill__8TBaseNPCFv
 0001:80212D44       setPosAndInitAfterSinkBottom__8TBaseNPCFv
 0001:80213140       changeNerveProc___8TBaseNPCFv
 0001:802137B0       isNowCanTaken__8TBaseNPCCFv
 0001:802138E0       isStateGoToMad___8TBaseNPCCFv
 0001:80213954       behaveToSandBomb___8TBaseNPCFPC10TLiveActor
 0001:80213B70       behaveToHitObject___8TBaseNPCFP9THitActor20EnumHitNpcObjectKind
 0001:80213FE0       behaveToBeTrampled___8TBaseNPCFv
 0001:80215004       throwMario__9TNpcThrowFP9THitActor
 0001:80215148       updateTrample__11TNpcTrampleFfPf
 0001:8021523C       startTrample__11TNpcTrampleFv
 0001:8021529C       emitParticle___8TBaseNPCFv
 0001:80215B0C       emitHappyEffect___8TBaseNPCFv
 0001:80215C70       emitSinkEffect___8TBaseNPCFv
 0001:80215CC8       getEffectScale___8TBaseNPCCFv
 0001:80215DA8       setSmokeEffectMtxPtr___8TBaseNPCFb
 0001:80216138       SMSGetNpcInitAnmData__FUl
 0001:8021614C       setKinoActionFlag___8TBaseNPCFv
 0001:80216180       setMareActionFlag___8TBaseNPCFv
 0001:802161B4       setMonteActionFlag___8TBaseNPCFv
 0001:802165F8       __ct__8TNpcCoinFi
 0001:80216670       __sinit_NpcCoin_cpp
 0001:8021696C       updateBalloon__11TNpcBalloonFv
 0001:802169D8       setNextMessage__11TNpcBalloonFUll
 0001:802169E4       isTurnToMarioWhenApproach__8TBaseNPCCFv
 0001:80216A48       isTurnToMarioWhenTalk__8TBaseNPCCFv
 0001:80216ABC       isNeedTurnToFirstState__8TBaseNPCCFv
 0001:80217258       bind__8TBaseNPCFv
 0001:80217954       stopAnmSound__10TLiveActorFv
 0001:80217990       getBasNameTable__10TLiveActorCFv
 0001:80217998       setCurAnmSound__10TLiveActorFv
 0001:80217A8C       setAnmSound__10TLiveActorFPCc
 0001:80217B30       updateAnmSound__10TLiveActorFv
 0001:80217B98       initAnmSound__10TLiveActorFv
 0001:80217CA8       getTakingMtx__10TLiveActorFv
 0001:80217CC8       getFocalPoint__10TLiveActorCFv
 0001:80217CE4       getJointTransByIndex__10TLiveActorCFiPQ29JGeometry8TVec3<f>
 0001:80217D6C       hasMapCollision__10TLiveActorCFv
 0001:80217D88       getGravityY__10TLiveActorCFv
 0001:80217D90       calcVelocityToJumpToY__10TLiveActorCFRCQ29JGeometry8TVec3<f>ff
 0001:80217DE4       performOnlyDraw__10TLiveActorFUlPQ26JDrama9TGraphics
 0001:80217EC0       perform__10TLiveActorFUlPQ26JDrama9TGraphics
 0001:80217FC8       drawObject__10TLiveActorFPQ26JDrama9TGraphics
 0001:80218020       requestShadow__10TLiveActorFv
 0001:8021818C       moveObject__10TLiveActorFv
 0001:802182F0       setGroundCollision__10TLiveActorFv
 0001:80218344       getShadowType__10TLiveActorFv
 0001:8021834C       receiveMessage__10TLiveActorFP9THitActorUl
 0001:80218354       kill__10TLiveActorFv
 0001:80218370       calcRootMatrix__10TLiveActorFv
 0001:80218414       control__10TLiveActorFv
 0001:802184DC       bind__10TLiveActorFv
 0001:80218738       load__10TLiveActorFR20JSUMemoryInputStream
 0001:802187D0       init__10TLiveActorFP12TLiveManager
 0001:802189BC       initLodAnm__10TLiveActorFPC12TLodAnmIndexif
 0001:80218A48       getRootJointMtx__10TLiveActorCFv
 0001:80218A50       getModel__10TLiveActorCFv
 0001:80218A5C       calcRideMomentum__10TLiveActorFv
 0001:80218CC0       belongToGround__10TLiveActorCFv
 0001:80218D40       calcRidePos__10TLiveActorFv
 0001:80218DD4       __dt__10TLiveActorFv
 0001:80218E70       __ct__10TLiveActorPCc
 0001:802192A4       initUserBuiltin__29TSpcTypedBinary<10TLiveActor>Fv
 0001:80219398       linPushNerve__FP29TSpcTypedInterp<10TLiveActor>Ul
 0001:80219590       linSetSRT__FP29TSpcTypedInterp<10TLiveActor>Ul
 0001:80219980       linGetSRT__FP29TSpcTypedInterp<10TLiveActor>Ul
 0001:8021A118       linSetAnmRate__FP29TSpcTypedInterp<10TLiveActor>Ul
 0001:8021A38C       linSetBls__FP29TSpcTypedInterp<10TLiveActor>Ul
 0001:8021A4A0       linSetBlk__FP29TSpcTypedInterp<10TLiveActor>Ul
 0001:8021A5C8       linSetBtk__FP29TSpcTypedInterp<10TLiveActor>Ul
 0001:8021A6F0       linSetBtp__FP29TSpcTypedInterp<10TLiveActor>Ul
 0001:8021A818       linSetBpk__FP29TSpcTypedInterp<10TLiveActor>Ul
 0001:8021A940       linSetBck__FP29TSpcTypedInterp<10TLiveActor>Ul
 0001:8021ADEC       def_8021AA90
 0001:8021AE00       hasMapCollision__12TLiveManagerCFv
 0001:8021AE48       getActorByFlag__12TLiveManagerCFUl
 0001:8021AE88       perform__12TLiveManagerFUlPQ26JDrama9TGraphics
 0001:8021AF84       setFlagOutOfCube__12TLiveManagerFv
 0001:8021B04C       clipActors__12TLiveManagerFPQ26JDrama9TGraphics
 0001:8021B074       clipActorsAux__12TLiveManagerFPQ26JDrama9TGraphicsff
 0001:8021B19C       manageActor__12TLiveManagerFP10TLiveActor
 0001:8021B1C8       load__12TLiveManagerFR20JSUMemoryInputStream
 0001:8021B208       createSpcBinary__12TLiveManagerFv
 0001:8021B28C       __ct__12TLiveManagerFPCc
 0001:8021B4E0       clearHitNum__12TObjHitCheckFv
 0001:8021C364       searchF__11TObjManagerFUsPCc
 0001:8021C3F4       getModelDataKeeper__11TObjManagerFv
 0001:8021C440       createAnmData__11TObjManagerFv
 0001:8021C4A0       createModelData__11TObjManagerFv
 0001:8021C4D4       createModelDataArrayBase__11TObjManagerFPC19TModelDataLoadEntryPCc
 0001:8021C5BC       createModelDataArray__11TObjManagerFPC19TModelDataLoadEntry
 0001:8021C5E4       perform__11TObjManagerFUlPQ26JDrama9TGraphics
 0001:8021C6D0       getMActorAnmData__11TObjManagerFv
 0001:8021C71C       load__11TObjManagerFR20JSUMemoryInputStream
 0001:8021C7E4       __ct__11TObjManagerFPCc
 0001:8021C870       getRes__9TObjCharaCFPCc
 0001:8021C8B0       __dt__9TObjCharaFv
 0001:8021C924       load__9TObjCharaFR20JSUMemoryInputStream
 0001:8021C968       __dt__Q26JDrama10TCharacterFv
 0001:8021CAA4       __ct__13TMActorKeeperFP12TLiveManagerUs
 0001:8021CB5C       createMActorFromAllBmd__13TMActorKeeperFUl
 0001:8021CC74       createMActor__13TMActorKeeperFPCcUl
 0001:8021CEC8       createMActorFromNthData__13TMActorKeeperFiUl
 0001:8021D008       createMActorFromDefaultBmd__13TMActorKeeperFPCcUl
 0001:8021D12C       getMActor__13TMActorKeeperCFPCc
 0001:8021D2E4       __ct__16TModelDataKeeperFPCc
 0001:8021D4C0       createAndKeepData__16TModelDataKeeperFPCcUl
 0001:8021D5A4       loadModelData__16TModelDataKeeperFPCcUlPCc
 0001:8021D61C       registerDataAndJoinNewNode__14TModelDataNodeFP12SDLModelDataPCc
 0001:8021D680       update__10TSpcInterpFv
 0001:8021DB9C       verifyArgNum__10TSpcInterpFUlPUl
 0001:8021DCBC       dump__10TSpcInterpFv
 0001:8021DF54       __dt__10TSpcInterpFv
 0001:8021E008       __ct__10TSpcInterpFP10TSpcBinaryPviiii
 0001:8021E20C       __dt__13TSpcStack<Ul>Fv
 0001:8021E26C       __dt__21TSpcStack<9TSpcSlice>Fv
 0001:8021E2D0       __ct__9TSpcSliceFv
 0001:8021E2E0       dispatchBuiltin__10TSpcInterpFUlUl
 0001:8021E300       dispatchBuiltinDefault__10TSpcInterpFUlUl
 0001:8021E4F4       execend__10TSpcInterpFv
 0001:8021E530       execint1__10TSpcInterpFv
 0001:8021E5A8       execint0__10TSpcInterpFv
 0001:8021E61C       execpop__10TSpcInterpFv
 0001:8021E660       execjmp__10TSpcInterpFv
 0001:8021E6B8       execjne__10TSpcInterpFv
 0001:8021E7E0       execret0__10TSpcInterpFv
 0001:8021F950       getDataInt__9TSpcSliceCFv
 0001:8021FF8C       getDataFloat__9TSpcSliceCFv
 0001:802206D8       __ne__9TSpcSliceCFRC9TSpcSlice
 0001:802209DC       __eq__9TSpcSliceCFRC9TSpcSlice
 0001:80221FCC       getHeader__10TSpcBinaryCFv
 0001:80222174       bindSystemDataToSymbol__10TSpcBinaryFPCcUl
 0001:80222250       searchSymbol__10TSpcBinaryFPCc
 0001:80222308       initUserBuiltin__10TSpcBinaryFv
 0001:8022230C       init__10TSpcBinaryFv
 0001:802225AC       __dt__10TSpcBinaryFv
 0001:802225F8       __ct__10TSpcBinaryFPv
 0001:80222BF4       spcPrint__FP10TSpcInterpUl
 0001:80223BE0       request__16TQuestionManagerFQ29JGeometry8TVec3<f>f
 0001:80223D64       nullsub_45
 0001:80223D68       __dt__13TSMSSmplCharaFv
 0001:80223DE8       getRes__13TSMSSmplCharaCFPCc
 0001:80223E2C       load__13TSMSSmplCharaFR20JSUMemoryInputStream
 0001:80223E74       __ct__9THitActorFPCc
 0001:80223F90       set<f>__Q29JGeometry8TVec3<f>fff
 0001:80223FA0       initHitActor__9THitActorFUlUsiffff
 0001:8022406C       perform__9THitActorFUlPQ26JDrama9TGraphics
 0001:8022408C       calcEntryRadius__9THitActorFv
 0001:8022415C       __ct__7TBinderFv
 0001:802245A8       __ct__12TMirrorActorFPCc
 0001:80224620       init__12TMirrorActorFP8J3DModelUs
 0001:8022481C       entryMirrorDrawBufferAlways__12TMirrorActorFP8J3DModel
 0001:802259DC       SMS_UnifyMaterial__FP8J3DModel
 0001:80225A90       SMS_CalcMatAnmAndMakeDL__FP8J3DModelUs
 0001:80225B2C       SMS_ShowJoint__FP11J3DMaterialb
 0001:80225B7C       SMS_DrawInit__Fv
 0001:80225BA8       SMS_MakeDLAndLock__FP8J3DModel
 0001:80225C30       SMS_DrawShape__P12J3DModelDataUs
 0001:80225C94       SMS_SettingDrawShape__P12J3DModelDataUs
 0001:80225D00       SMS_DrawCube__FRCQ29JGeometry8TVec3<f>RCQ29JGeometry8TVec3<f>
 0001:80225E80       SMS_CountPolygonNumInShape__FP8J3DShape
 0001:80225F5C       ViewFrustumClipCheck__FPQ26JDrama9TGraphicsP3Vecf
 0001:802260CC       SetViewFrustumClipCheckPerspective__Fffff
 0001:802264D8       SMS_ResetDamageFogEffect__FP12J3DModelData
 0001:80226584       SMS_AddDamageFogEffect__FP12J3DModelDataRCQ29JGeometry8TVec3<f>PQ26JDrama9TGraphics
 0001:80226884       movement__19TTrembleModelEffect
 0001:80226D7C       clash__19TTrembleModelEffectFf
 0001:8022738C       init__19TTrembleModelEffectP8J3DModel
 0001:802281B8       getLightPos__22TLightWithDBSetManagerCFv
 0001:80228364        __ct__Q37JGadget34TList_pointer<PQ26JDrama8TViewObj>8iteratorFQ37JGadget36TList<Pv,Q27JGadget14TAllocator<Pv>>8iterator
 0001:80228534       __ct__22TLightWithDBSetManagerFPCc
 0001:802290D0       resetLightDrawBuffer__15TLightWithDBSetFv
 0001:8022910C       changeLightDrawBuffer__15TLightWithDBSetFi
 0001:80229FBC       __ct__12TLightCommonFPCc
 0001:8022A414       MsVECMag2__FP3Vec
 0001:8022A43C       MsVECNormalize__FP3VecP3Vec
 0001:8022A468       SMSCalcJumpVelocityXZ__FRCQ29JGeometry8TVec3<f>RCQ29JGeometry8TVec3<f>ffPQ29JGeometry8TVec3<f>
 0001:8022A564       SMSCalcJumpVelocityY__FRCQ29JGeometry8TVec3<f>RCQ29JGeometry8TVec3<f>fffPQ29JGeometry8TVec3<f>
 0001:8022A60C       SMS_GoRotate__FRCQ29JGeometry8TVec3<f>RCQ29JGeometry8TVec3<f>fPf
 0001:8022A6F4       MsIsInSight__FRCQ29JGeometry8TVec3<f>fRCQ29JGeometry8TVec3<f>fff
 0001:8022A8E8       MsMtxSetTRS__FPA4_ffffffffff
 0001:8022AA2C       MsMtxSetXYZRPH__FPA4_ffffsss
 0001:8022AADC       MsMtxSetRotRPH__FPA4_ffff
 0001:8022ABD4       MsGetRotFromZaxis__FRCQ29JGeometry8TVec3<f>
 0001:8022AE08       matan__ff
 0001:8022B0AC       FConverge__Fffff
 0001:8022B0DC       IConverge__Fiiii
 0001:8022B10C       SMS_GetActorMtx__RC9THitActorPA4_f
 0001:8022B15C       moveHead__5TRopeFRCQ29JGeometry8TVec3<f>
 0001:8022BAE0       SMS_MakeJointsToArc__FP8J3DModelRCQ29JGeometry8TVec3<f>RCQ29JGeometry8TVec3<f>RCQ29JGeometry8TVec3<f>
 0001:8022BFD8       setup__15TMultiMtxEffectP8J3DModelPCc
 0001:8022DF4C       __dt__19TMBindShadowManagerFv
 0001:8022E040       __eq__7JGadgetFQ37JGadget70TList<P16TMBindShadowBody,Q27JGadget31TAllocator<P16TMBindShadowBody>>8iteratorQ37JGadget70TList<P16TMBindShadowBody,Q27JGadget31TAllocator<P16TMBindShadowBody>>8iterator
 0001:8022E058       erase__Q27JGadget70TList<P16TMBindShadowBody,Q27JGadget31TAllocator<P16TMBindShadowBody>>FQ37JGadget70TList<P16TMBindShadowBody,Q27JGadget31TAllocator<P16TMBindShadowBody>>8iterator
 0001:8022E0C4       __ct__Q37JGadget70TList<P16TMBindShadowBody,Q27JGadget31TAllocator<P16TMBindShadowBody>>8iteratorFPQ37JGadget70TList<P16TMBindShadowBody,Q27JGadget31TAllocator<P16TMBindShadowBody>>6TNode_
 0001:8022E0CC       calcVtx__19TMBindShadowManagerFv
 0001:8022EBBC       forceRequest__19TMBindShadowManagerFRC20TCircleShadowRequestUl
 0001:8022ECEC       request__19TMBindShadowManagerFRC20TCircleShadowRequestUl
 0001:8022F014       drawShadow__19TMBindShadowManagerFUlPQ26JDrama9TGraphics
 0001:8022FA40       drawShadowGD__19TMBindShadowManagerFUlPQ26JDrama9TGraphics
 0001:80231108       perform__19TMBindShadowManagerFUlPQ26JDrama9TGraphics
 0001:802311D0       insert__Q27JGadget70TList<P16TMBindShadowBody,Q27JGadget31TAllocator<P16TMBindShadowBody>>FQ37JGadget70TList<P16TMBindShadowBody,Q27JGadget31TAllocator<P16TMBindShadowBody>>8iteratorRCP16TMBindShadowBody
 0001:80231288       load__19TMBindShadowManagerFR20JSUMemoryInputStream
 0001:802313E4       __ct__19TMBindShadowManagerFPCc
 0001:8023161C       __ct__21TAlphaShadowBlendQuadFv
 0001:8023164C       __ct__19TAlphaShadowQuadAryFv
 0001:80231664       __ct__16TAlphaShadowQuadFv
 0001:80231680       __ct__20TCircleShadowRequestFv
 0001:802316C8       __ct__16TModelShadowInfoFv
 0001:802316F4       __ct__17TSquareShadowInfoFv
 0001:80231720       entryDrawShadow__16TMBindShadowBody
 0001:802319F8       __ct__16TMBindShadowBodyP9THitActorP8J3DModelf
 0001:80231DD0       calc__17TMBindShadowPartsFf
 0001:80232048       __ct__17TMBindShadowPartsFP8J3DModelUcP16TMBindShadowBodyf
 0001:80232114       __dt__18J3DMtxCalcBasicAnmFv
 0001:802339B4       SMS_EmitSinkInPollutionEffect__RCQ29JGeometry8TVec3<f>RCQ29JGeometry8TVec3<f>b
 0001:80233B9C       SMS_EmitRippleSea__FPA4_fPv
 0001:80233C4C       SMS_EmitRipplePool__FPA4_fPv
 0001:80233CFC       SMS_EmitRippleTiny__FPQ29JGeometry8TVec3<f>
 0001:80233D7C       SMS_CreateMinimumSDLModel__FPCc
 0001:80233E00       SMS_CreatePartsModel__PcUl
 0001:80233E70       SMS_RideMoveCalcLocalPos__FP11TRidingInfoRCQ29JGeometry8TVec3<f>
 0001:80233F10       SMS_RideMoveByGroundActor__FP11TRidingInfoPQ29JGeometry8TVec3<f>Pf
 0001:802340A4       update__9TMultiBtkFv
 0001:8023422C       __ct__9TMultiBtkFiP12J3DModelData
 0001:802342B0       finishPause__9RumbleMgrFv
 0001:802342C4       startPause__9RumbleMgrFv
 0001:80234338       setActive__9RumbleMgrFb
 0001:802343EC       update__9RumbleMgrFv
 0001:802346C0       stop__9RumbleMgrFi
 0001:80234714       stop__9RumbleMgrFv
 0001:80234860       start__9RumbleMgrFiiP3Vec
 0001:802348B4       start__9RumbleMgrFiiPf
 0001:80234908       start__9RumbleMgrFiP3Vec
 0001:80234964       start__9RumbleMgrFiPf
 0001:802349C0       reset__9RumbleMgrFv
 0001:80234BB4       init__9RumbleMgrFv
 0001:80234DC8       __ct__9RumbleMgrFbbbb
 0001:80235064       stop__19RumbleControllerMgrFi
 0001:802351A0       start__19RumbleControllerMgrFiiP3Vec
 0001:802351F8       start__19RumbleControllerMgrFiiPf
 0001:80235250       reset__19RumbleControllerMgrFv
 0001:80235688       __ct__16RumbleChannelMgrFv
 0001:80235728       SMS_ShowAllShapePacket__FP8J3DModel
 0001:80235828       SMS_HideAllShapePacket__FP8J3DModel
 0001:80235928       SMS_InitPacket_TwoTevColorAndOneTevKColor__FP8J3DModelUs11_GXTevRegIDPC11_GXColorS1011_GXTevRegIDPC11_GXColorS10PC8_GXColor
 0001:802359B8       SMS_InitPacket_OneTevColorAndOneTevKColor__FP8J3DModelUs11_GXTevRegIDPC11_GXColorS10PC8_GXColor
 0001:80235A50       SMS_InitPacket_OneTevKColorAndFog__FP8J3DModelUs14_GXTevKColorIDPC8_GXColor
 0001:80235B38       SMS_InitPacket_TwoTevKColor__FP8J3DModelUs14_GXTevKColorIDPC8_GXColor14_GXTevKColorIDPC8_GXColor
 0001:80235BC0       SMS_InitPacket_OneTevKColor__FP8J3DModelUs14_GXTevKColorIDPC8_GXColor
 0001:80235C48       SMS_InitPacket_Fog__FP8J3DModelUs
 0001:80235D6C       SMS_InitPacket_TwoTevColor__FP8J3DModelUs11_GXTevRegIDPC11_GXColorS1011_GXTevRegIDPC11_GXColorS10
 0001:80235DF4       SMS_InitPacket_OneTevColor__FP8J3DModelUs11_GXTevRegIDPC11_GXColorS10
 0001:80235E7C       SMS_InitPacket_MatColor__FP8J3DModelUs12_GXChannelIDPC8_GXColor
 0001:8023667C       def_80235F40
 0001:80236924       make__10TGDLStaticFv
 0001:80236AB4       alloc__10TGDLStaticFUl
 0001:80236C3C       SMS_ChangeTextureAll__P12J3DModelDataPCcRC7ResTIMG
 0001:80236D58       SMS_GetSandRiseUpRatio__FPC10TLiveActor
 0001:80236DA4       SMS_GetGroundActor__FPC12TBGCheckDataUl
 0001:80236DD8       SMS_GetMonteVillageAreaInMario__Fv
 0001:80237408       __ct__24M3UMtxCalcSIAnmBlendQuatFb
 0001:802378F4       perform__8M3UModelFUlPQ26JDrama9TGraphics
 0001:80237D70       updateMatAnm__6MActorFv
 0001:80237E04       entryOut__6MActorFv
 0001:80237E80       updateOut__13MActorAnmBaseFv
 0001:80237E84       entryIn__6MActorFv
 0001:80237F00       updateIn__13MActorAnmBaseFv
 0001:80237F04       updateOut__6MActorFv
 0001:80237FE8       updateIn__6MActorFv
 0001:802380CC       setBrkFromIndex__6MActorFi
 0001:8023811C       setAnmFromIndex__35MActorAnmMatEach<15J3DAnmTevRegKey>FiPUs
 0001:802381E4       setBrk__6MActorFPCc
 0001:80238234       setAnm__32MActorAnmEach<15J3DAnmTevRegKey>FPCcPUs
 0001:80238360       setBlk__6MActorFPCc
 0001:802383B0       setAnm__33MActorAnmEach<16J3DAnmClusterKey>FPCcPUs
 0001:802384DC       setBtkFromIndex__6MActorFi
 0001:8023852C       setAnmFromIndex__39MActorAnmMatEach<19J3DAnmTextureSRTKey>FiPUs
 0001:802385F4       setBtk__6MActorFPCc
 0001:80238644       setAnm__36MActorAnmEach<19J3DAnmTextureSRTKey>FPCcPUs
 0001:80238770       setBtpFromIndex__6MActori
 0001:802387D0       setAnmFromIndex__36MActorAnmMatEach<16J3DAnmTexPattern>FiPUs
 0001:80238898       setBtp__6MActorFPCc
 0001:802388E8       setAnm__33MActorAnmEach<16J3DAnmTexPattern>FPCcPUs
 0001:80238A14       setBpkFromIndex__6MActorFi
 0001:80238A64       setAnmFromIndex__34MActorAnmMatEach<14J3DAnmColorKey>FiPUs
 0001:80238B2C       setBpk__6MActorFPCc
 0001:80238B7C       setAnm__31MActorAnmEach<14J3DAnmColorKey>FPCcPUs
 0001:80238CA8       setAnm__35MActorAnmEach<18J3DAnmTransformKey>FPCcPUs
 0001:80238DD4       checkCurBckFromIndex__6MActorFi
 0001:80238E04       setBckFromIndex__6MActorFi
 0001:80238E40       setBck__6MActorFPCc
 0001:80238E7C       setFrameRate__6MActorFfi
 0001:80238E98       getCurAnmIdx__6MActorCFi
 0001:80238EBC       checkBckPass__6MActorFf
 0001:80238F08       getFrameCtrl__6MActorFi
 0001:80238F2C       checkAnmFileExist__6MActorFPCci
 0001:8023904C       checkCurAnmFromIndex__6MActorFii
 0001:80239084       checkCurAnm__6MActorFPCci
 0001:802391BC       perform__6MActorFUlPQ26JDrama9TGraphics
 0001:80239394       matAnmFrameUpdate__6MActorFv
 0001:80239408       frameUpdate__6MActorFv
 0001:802394C8       entry__6MActorFv
 0001:80239614       setLightType__6MActorFi
 0001:80239634       setLightData__6MActorFPC12TBGCheckDataRCQ29JGeometry8TVec3<f>
 0001:80239720       setLightID__6MActorFs
 0001:80239734       viewCalc__6MActorFv
 0001:80239770       calc__6MActorFv
 0001:80239878       calcAnm__6MActor
 0001:80239A0C       updateOutSubBck__6MActorFv
 0001:80239A98       updateInSubBck__6MActorFv
 0001:80239B24       setJointCallback__6MActorFiPFP7J3DNodei_i
 0001:80239B40       offMakeDL__6MActorFv
 0001:80239B88       unlockDLIfNeed__6MActorFv
 0001:80239BF8       resetDL__6MActorFv
 0001:80239D3C       initDL__6MActorFv
 0001:80239E64       setAnimation__6MActorFPCci
 0001:80239EDC       curAnmEndsNext__6MActorFiPc
 0001:8023A110       setModel__6MActorFP8J3DModelUl
 0001:8023A400       setModel__13MActorAnmBaseFP8J3DModel
 0001:8023A408       __ct__6MActorFP13MActorAnmData
 0001:8023A900       __ct__13MActorAnmBaseFv
 0001:8023ABB0       setTevKColorAnmKeyPtr__12MActorAnmBrkFv
 0001:8023AD10       setTevColorAnmKeyPtr__12MActorAnmBrkFv
 0001:8023AEE8       setMatColorAnmKeyPtr__12MActorAnmBpkFv
 0001:8023B204       setTexMtxAnmKeyPtr__12MActorAnmBtkFv
 0001:8023B6B0       setTexNoAnmFullPtr__12MActorAnmBtpFv
 0001:8023B7C4       setAnmFromIndex__12MActorAnmBckFiPUs
 0001:8023B8D4       updateOut__12MActorAnmBckFv
 0001:8023B8F8       updateIn__12MActorAnmBckFv
 0001:8023B9D8       setModel__12MActorAnmBckFP8J3DModel
 0001:8023BC10       setMotionBlendRatio__12MActorAnmBckFf
 0001:8023BC70       initNormalMotionBlend__12MActorAnmBckFv
 0001:8023BD80       checkUseMaterialID__13MActorAnmBaseFPUs
 0001:8023BD84       checkUseMaterialIDInit__13MActorAnmBaseFPUs
 0001:8023BE50       createSampleModelData__13MActorAnmDataFP12J3DModelData
 0001:8023BEAC       addFileTable__13MActorAnmDataFPCc
 0001:8023C328       init__13MActorAnmDataFPCcPPCc
 0001:8023C900       __dt__13JKRFileFinderFv
 0001:8023C94C       partsNameToIdx__13MActorAnmDataFPCc
 0001:8023C9EC       MActorCalcKeyCode__FPCc
 0001:8023CA1C       __ct__13MActorAnmDataFv
 0001:8023CD68       loadAnmPtrArray__37MActorAnmDataEach<16J3DAnmClusterKey>FPCcPCc
 0001:8023CE58       loadAnmPtrArray__36MActorAnmDataEach<15J3DAnmTevRegKey>FPCcPCc
 0001:8023CF48       loadAnmPtrArray__40MActorAnmDataEach<19J3DAnmTextureSRTKey>FPCcPCc
 0001:8023D038       loadAnmPtrArray__37MActorAnmDataEach<16J3DAnmTexPattern>FPCcPCc
 0001:8023D128       loadAnmPtrArray__35MActorAnmDataEach<14J3DAnmColorKey>FPCcPCc
 0001:8023DD68       __ct__8SDLModelFP12SDLModelDataUlUl
 0001:8023DDFC       __ct__12SDLMatPacketFv
 0001:8023DE38       entrySDLModels__12SDLModelDataFv
 0001:8023E034       __ct__12SDLModelDataFP12J3DModelData
 0001:8023E098       recursiveEntry__12SDLModelDataFP7J3DNodeP15SDLDrawBufToken
 0001:8023E3A4       entryNode__12SDLModelDataFP7J3DNodeP15SDLDrawBufToken
 0001:8023E430       entrySameMat__12SDLModelDataFP11J3DMaterialP15SDLDrawBufToken
 0001:8023E5C4       SMS_MakeMActor__FPCcPCcUlUl
 0001:8023E63C       SMS_MakeMActorWithAnmData__FPCcP13MActorAnmDataUlUl
 0001:8023E6D8       SMS_MakeMActorsWithAnmData__FPCcP13MActorAnmDataiUlUl
 0001:8023E7BC       SMS_MakeSDLModelData__FPCcUl
 0001:8023E81C       SMS_MakeMActorFromSDLModelData__FP12SDLModelDataP13MActorAnmDataUl
 0001:8023E8BC       __ct__15SampleCtrlShapeP8J3DShape
 0001:8023E908       __ct__18SampleCtrlMaterialP11J3DMaterial
 0001:8023EDE4       __ct__15SampleCtrlJointP8J3DJoint
 0001:8023EE48       __dt__15SampleCtrlJoint
 0001:8023EE94       __dt__18SampleCtrlMaterial
 0001:8023EEE0       __dt__15SampleCtrlShape
 0001:8023EF2C       __ct__19SampleCtrlModelDataP12J3DModelData
 0001:8023F10C       makeHierarchy__19SampleCtrlModelDataP8J3DJoint
 0001:8023F208       __dt__19SampleCtrlModelData
 0001:8023F6B8       actnMain__6TMarioFv
 0001:8023F910       taking__6TMarioFv
 0001:8023FD30       demoMain__6TMarioFv
 0001:80240070       footDowning__6TMarioFv
 0001:802401B8       electricDamage__6TMarioFv
 0001:8024033C       warpOut__6TMarioFv
 0001:802405F8       toroccoStart__6TMarioFv
 0001:802406BC       waitingStart__6TMarioFPCQ29JGeometry8TVec3<f>f
 0001:802407BC       returnStart__6TMarioFPCQ29JGeometry8TVec3<f>fbi
 0001:80240954       rollingStart__6TMarioFPCQ29JGeometry8TVec3<f>f
 0001:80240A58       isUnUsualStageStart__6TMarioFv
 0001:80240C1C       warpIn__6TMarioFv
 0001:802410E8       jumpingDemoCommon__6TMarioFUlif
 0001:80241170       readBillboard__6TMarioFv
 0001:80241378       winDemo__6TMarioFv
 0001:8024145C       __sinit_MarioAutodemo_cpp
 0001:80241758       updateOut__13M3UModelMarioFv
 0001:802417D4       updateInMotion__13M3UModelMario
 0001:80241930       changeMtxCalcSIAnmBQAnmTransform__13M3UModelMarioFiiUs
 0001:80241A10       mtxEffectShow__9TMarioCapFv
 0001:80242108       createMirrorCap__9TMarioCapFv
 0001:80242188       __ct__9TMarioCapP6TMario
 0001:80242618       considerTake__6TMarioFv
 0001:8024280C       damageExec__6TMarioFP9THitActoriiififs
 0001:80242DA4       __amu__Q29JGeometry8TVec3<f>f
 0001:80242DCC       __ct__Q29JGeometry8TVec3<f>FRCQ29JGeometry8TVec3<f>
 0001:80242DE8       calcDamagePos__6TMarioFRCQ29JGeometry8TVec3<f>
 0001:8024303C       floorDamageExec__6TMarioFiiii
 0001:802430FC       loserExec__6TMarioFv
 0001:8024324C       normalizeNozzle__6TMarioFv
 0001:802432B4       nullsub_23
 0001:802432B8       trampleExec__6TMarioP9THitActor
 0001:80243550       canTake__6TMarioP9THitActor
 0001:8024359C       isTakeSituation__6TMarioP9THitActor
 0001:8024379C       dropObject__6TMarioFv
 0001:802437F0       getAttackAngle__6TMarioFPC9THitActor
 0001:80243828       decHP__6TMarioFi
 0001:80243928       incHP__6TMarioFi
 0001:80243A40       rumbleStart__6TMarioFii
 0001:80243D70       addDamageFog__6TMarioPQ26JDrama9TGraphics
 0001:8024406C       addDirty__6TMario
 0001:8024418C       boxDrawPrepare__6TMarioPA4_f
 0001:80244388       drawLogic__6TMario
 0001:80244520       drawSpecial__6TMarioFPQ26JDrama9TGraphics
 0001:8024458C       entryModels__6TMarioPQ26JDrama9TGraphics
 0001:802446C0       calcView__6TMarioFPQ26JDrama9TGraphics
 0001:80244800       calcAnim__6TMarioFUlPQ26JDrama9TGraphics
 0001:80244E74       addUpper__6TMarioFv
 0001:80245028       setUpperDamageRun__6TMario
 0001:802450C0       addCallBack__6TMarioFPQ26JDrama9TGraphics
 0001:80245450       calcBaseMtx__6TMarioFPA4_f
 0001:80245FD0       considerWaist__6TMarioFv
 0001:80246368       isUpperPumpingStyle__6TMarioCFv
 0001:8024638C       finalDrawInitialize__6TMarioFv
 0001:8024645C       initMirrorModel__6TMarioFv
 0001:80246578       initModel__6TMarioFv
 0001:80247508       loadAnmTexPattern__6TMarioFPP16J3DAnmTexPatternPcP12J3DModelData
 0001:8024756C       loadBas__6TMarioFPPvPCc
 0001:802475B4       setReverseAnimation__6TMarioFif
 0001:80247670       setAnimation__6TMarioFif
 0001:8024777C       def_802476F0
 0001:802479A8       changeHand__6TMarioFi
 0001:80247DA8       isAnimeLoopOrStop__6TMarioFv
 0001:80247DCC       isLast1AnimeFrame__6TMarioFv
 0001:80247E1C       getMotionFrameCtrl__6TMarioFv
 0001:80247E28       getCurrentFrame__6TMarioFi
 0001:80247E40       getTakenMtx__6TMarioFv
 0001:80247E50       getTakingMtx__6TMarioFv
 0001:80247E6C       getTrampleCt__6TMarioFv
 0001:80247EB4       setPositions__6TMarioFv
 0001:80247F58       takeOffGlass__6TMarioFv
 0001:80247FA4       wearGlass__6TMarioFv
 0001:80247FF0       isWearingHelm__6TMarioFv
 0001:80248020       isWearingCap__6TMarioFv
 0001:80248050       setDivHelm__6TMarioFv
 0001:802480A8       getWallAngle__6TMarioCFv
 0001:802480D8       getPumpFrame__6TMarioCFv
 0001:802480E8       getCenterAnmMtx__6TMarioFv
 0001:80248104       getRootAnmMtx__6TMarioFv
 0001:80248114       MarioFootDirLCtrl__FP7J3DNodei
 0001:80248F14       isPumpOK__15TMarioAnimeDataCFv
 0001:8024922C       jumpMain__6TMario
 0001:8024A2AC       diving__6TMario
 0001:8024A6A8       hipAttacking__6TMario
 0001:8024AC64       rocketing__6TMarioFv
 0001:8024B09C       rocketCheck__6TMarioFv
 0001:8024B1A0       boardJumping__6TMarioFv
 0001:8024B34C       thrownDowning__6TMarioFv
 0001:8024B514       fireDowning__6TMarioFv
 0001:8024B77C       slipFalling__6TMarioFv
 0001:8024BA24       catchStop__6TMarioFv
 0001:8024C1D0       landing__6TMario
 0001:8024CAD8       doJumping__6TMarioFv
 0001:8024CDB0       startJumpWall__6TMarioFv
 0001:8024D17C       drawSyncCallback__6TMarioFUs
 0001:8024D2A8       perform__6TMarioFUlPQ26JDrama9TGraphics
 0001:8024DB0C       isMario__6TMarioFv
 0001:8024DB28       __sinit_MarioMain_cpp
 0001:8024DE38       playerControl__6TMarioFPQ26JDrama9TGraphics
 0001:8024E2E4       onYoshi__6TYoshiFv
 0001:8024E300       gunExec__6TMarioFv
 0001:8024E748       checkWet__6TMarioFv
 0001:8024E950       isMarioThrough__12TBGCheckDataCFv
 0001:8024E9A4       thinkYoshiHeadCollision__6TMarioFv
 0001:8024EB6C       getOffYoshi__6TMarioFb
 0001:8024EC44       thinkParams__6TMarioFv
 0001:8024EE20       def_8024EDCC
 0001:8024EF48       thinkSand__6TMario
 0001:8024EFE4       thinkWaterSurface__6TMarioFv
 0001:8024F870       thinkSituation__6TMarioFv
 0001:8025009C       stateMachine__6TMarioFv
 0001:80250198       checkPlayerAction__6TMarioPQ26JDrama9TGraphics
 0001:80250204       checkRideReCalc__6TMario
 0001:802502B0       checkRideMovement__6TMarioFv
 0001:80250580       checkCurrentPlane__6TMarioFv
 0001:802510AC       def_80251058
 0001:802510B4       checkGroundPlane__6TMarioFfffPfPPC12TBGCheckData
 0001:802511D8       makeHistory__6TMarioFv
 0001:80251304       checkStickRotate__6TMarioFPi
 0001:80251494       checkController__6TMarioFPQ26JDrama9TGraphics
 0001:80252264       checkReturn__6TMarioFv
 0001:802524BC       startForceJumpSound__6MSoundFP3VecUlfUl
 0001:8025259C       checkSink__6TMarioFv
 0001:802528B8       thinkHeight__6TMario
 0001:80252A04       thinkDirty__6TMarioFv
 0001:80252BB0       dirtyLimitCheck__6TMario
 0001:80252BDC       checkGraffito__6TMarioFv
 0001:80252FE4       def_80252C94
 0001:80253108       def_802530B0
 0001:80253224       checkGraffitoElec__6TMario
 0001:802533DC       checkGraffitoSlip__6TMario
 0001:80253660       checkGraffitoFire__6TMario
 0001:80253A10       changePlayerDropping__6TMarioFUlUl
 0001:80253A68       changePlayerJumping__6TMarioFUlUl
 0001:80254034       changePlayerStatus__6TMarioFUlUlb
 0001:80254200       throwMario__6TMarioFRCQ29JGeometry8TVec3<f>f
 0001:802543A0       setStatusToJumping__6TMarioFUlUl
 0001:80254EF8       checkPlayerAround__6TMarioFif
 0001:80254F6C       getSlideStopCatch__6TMarioFv
 0001:802550EC       getSlideStopNormal__6TMarioFv
 0001:80255264       canSlipJump__6TMarioFv
 0001:80255400       isSlipStart__6TMarioFv
 0001:80255570       isFrontSlip__6TMarioFi
 0001:802555C0       checkRoofPlane__6TMarioFRC3VecfPPC12TBGCheckData
 0001:802555FC       checkWallPlane__6TMarioFP3Vecff
 0001:80255734       setPlayerVelocity__6TMarioFf
 0001:80255794       setNormalAttackArea__6TMarioFv
 0001:802557D8       canBendBody__6TMarioFv
 0001:80255818       considerRotateJumpStart__6TMarioFv
 0001:802558A4       addVelocity__6TMarioFf
 0001:802558C8       onYoshi__6TMarioCFv
 0001:80255910       windMove__6TMarioFRCQ29JGeometry8TVec3<f>
 0001:80255944       flowMove__6TMarioFRCQ29JGeometry8TVec3<f>
 0001:8025599C       warpRequest__6TMarioFRCQ29JGeometry8TVec3<f>f
 0001:80255A8C       moveRequest__6TMarioFRCQ29JGeometry8TVec3<f>
 0001:80255DC0       getRidingMtx__6TMarioFPA4_f
 0001:80255E3C       isWallInFront__6TMarioCFv
 0001:80255EA4       isInvincible__6TMarioCFv
 0001:80255F58       isUnderWater__6TMarioCF
 0001:80255FA0       canSquat__6TMarioCFv
 0001:8025602C       getJumpSlideControl__6TMarioCFv
 0001:802560C8       getJumpAccelControl__6TMarioCFv
 0001:802563E0       jumpProcess__6TMarioFi
 0001:802570C4       walkProcess__6TMarioFv
 0001:80257184       waitProcess__6TMarioFv
 0001:802572F4       checkGroundAtWalking__6TMarioFP3Vec
 0001:80257590       checkDescent__6TMarioFv
 0001:80257740       keepDistance__6TMarioRC9THitActorf
 0001:8025776C       keepDistance__6TMarioRCQ29JGeometry8TVec3<f>ff
 0001:80257B60       playerRefrection__6TMarioFi
 0001:80258308       moveMain__6TMario
 0001:80258D24       jumpSlipEvents__6TMarioFPQ26TMario14JumpSlipRecord
 0001:80258E5C       jumpSlipCommon__6TMarioFsUl
 0001:80258F94       loserDown__6TMarioFv
 0001:802590B8       downingCommon__6TMarioFifi
 0001:80259208       oilSlip__6TMarioFv
 0001:80259438       oilRun__6TMarioFv
 0001:8025970C       catching__6TMarioFv
 0001:80259860       slipBackCommon__6TMarioFiii
 0001:80259940       slipForeCommon__6TMarioFiiii
 0001:80259A08       slippingBasic__6TMarioFiii
 0001:80259D24       fireDashing__6TMarioFv
 0001:80259EAC       walkEnd__6TMarioFv
 0001:8025A0F4       surfing__6TMarioFv
 0001:8025BB64       slopeProcess__6TMarioFv
 0001:8025BCD8       doSliding__6TMarioFf
 0001:8025CCD8       considerRotateStart__6TMarioFv
 0001:8025D064       specMain__6TMario
 0001:802603F8       wireMove__6TMarioFf
 0001:802622A8       stateMachineUpper__6TMarioFv
 0001:802624A0       checkPumpEnable__6TMarioFv
 0001:8026266C       getNozzleKind__11TNozzleBaseCFv
 0001:80262A88       askJumpIntoWaterEffectExist__6TMarioCFv
 0001:80262B18       kickFruitEffect__6TMarioFv
 0001:80262BBC       toroccoEffect__6TMarioFv
 0001:80262CDC       sleepingEffectKill__6TMarioFv
 0001:80262D1C       sleepingEffect__6TMarioFv
 0001:80262D50       kickRoofEffect__6TMarioFv
 0001:80262E18       elecEffect__6TMarioFv
 0001:80262F54       meltInWaterEffect__6TMario
 0001:80263000       emitSandEffect__6TMarioFv
 0001:80263028       emitDirtyFootPrint__6TMario
 0001:80263050       emitFootPrintWithEffect__6TMarioFii
 0001:8026376C       warpInLight__6TMarioFv
 0001:802637A0       warpInEffect__6TMarioFv
 0001:80263AA0       surfingEffect__6TMarioFv
 0001:802640D4       bubbleFromMouth__6TMarioFi
 0001:802641E8       inOutWaterEffect__6TMarioFf
 0001:80264550       emitGetCoinEffect__6TMarioPQ29JGeometry8TVec3<f>
 0001:802645A8       emitGetWaterEffect__6TMarioFv
 0001:802645DC       emitGetEffect__6TMarioFv
 0001:80264628       emitSweatSometimes__6TMarioFv
 0001:8026465C       emitSweat__6TMarioFs
 0001:80264730       emitSmoke__6TMarioFs
 0001:802647A8       emitParticle__6TMarioFis
 0001:802647FC       emitParticle__6TMarioiPCQ29JGeometry8TVec3<f>
 0001:8026483C       emitParticle__6TMarioFi
 0001:80264884       moveParticle__6TMarioFv
 0001:802648F0       initParticle__6TMarioFv
 0001:802649C8       __sinit_MarioParticle_cpp
 0001:80264CDC       waitMain__6TMario
 0001:80265BD4       sleeping__6TMarioFv
 0001:80265D68       sleepily__6TMarioFv
 0001:80265E88       waiting__6TMarioFv
 0001:80266128       changeMontemanWaitingAnim__6TMarioFv
 0001:80266148       stopCommon__6TMarioFii
 0001:80266204       waitingCommonEvents__6TMarioFv
 0001:80266424       canPut__6TMarioFv
 0001:802664E4       canSleep__6TMarioFv
 0001:802671E8       __sinit_SplashManager_cpp
 0001:802674E4       __dt__12TYoshiTongueFv
 0001:80267580       getTakingMtx__12TYoshiTongueFv
 0001:8026758C       checkTaking__12TYoshiTongueFv
 0001:80267590       checkTaken__12TYoshiTongueFv
 0001:80267594       entry__12TYoshiTongueFv
 0001:802675F0       viewCalc__12TYoshiTongueFv
 0001:8026764C       calcAnim__12TYoshiTongueFPA4_f
 0001:802678C8       movement__12TYoshiTongueFv
 0001:80267944       def_80267940
 0001:80268168       __ami__Q29JGeometry8TVec3<f>RCQ29JGeometry8TVec3<f>
 0001:8026819C       findTarget__12TYoshiTongueFbb
 0001:802684B0       canGo__12TYoshiTongueFv
 0001:802685EC       emit__12TYoshiTongueFRCQ29JGeometry8TVec3<f>RCQ29JGeometry8TVec3<f>RCQ29JGeometry8TVec3<f>
 0001:80268780       initInLoadAfter__12TYoshiTongueFv
 0001:8026888C       init__12TYoshiTongueFP6TYoshi
 0001:80268A80       __sinit_Tongue_cpp
 0001:80268D84       changeBackup__9TWaterGunFv
 0001:80268E30       damage__9TWaterGun
 0001:80268E80       suck__9TWaterGunFv
 0001:80268F98       emit__9TWaterGunFv
 0001:8026923C       triggerPressureMovement__9TWaterGunRC20TMarioControllerWork
 0001:802692D4       rotateProp__9TWaterGunFf
 0001:80269388       getEmitPosDirSpeed__9TWaterGunFiPQ29JGeometry8TVec3<f>PQ29JGeometry8TVec3<f>PQ29JGeometry8TVec3<f>
 0001:80269448       getPressureMax__9TWaterGunFv
 0001:802694B4       getPressure__9TWaterGunFv
 0001:80269520       isPressureOn__9TWaterGunFv
 0001:8026959C       setAmountToRate__9TWaterGunf
 0001:8026960C       getCurrentNozzle__9TWaterGunCFv
 0001:80269620       isEmitting__9TWaterGunFv
 0001:8026971C       perform__9TWaterGunFUlPQ26JDrama9TGraphics
 0001:80269868       calcAnimation__9TWaterGunFPQ26JDrama9TGraphics
 0001:80269AF4       setBaseTRMtx__9TWaterGunFPA4_f
 0001:80269BE0       movement__9TWaterGunFv
 0001:8026A164       changeNozzle__9TWaterGunFQ29TWaterGun11TNozzleTypeb
 0001:8026A2A4       getNozzleMtx__9TWaterGunFv
 0001:8026A2C0       getEmitMtx__9TWaterGunFi
 0001:8026A3B8       initInLoadAfter__9TWaterGunFv
 0001:8026A3BC       init__9TWaterGun
 0001:8026AA48       __ct__9TWaterGunFP6TMario
 0001:8026ADF4       animation__13TNozzleDeformFi
 0001:8026B520       def_8026AF6C
 0001:8026B580       emit__13TNozzleDeformFi
 0001:8026B928       movement__13TNozzleDeformFRC20TMarioControllerWork
 0001:8026BA50       animation__14TNozzleTriggerFi
 0001:8026BFC4       emit__14TNozzleTriggerFi
 0001:8026C2CC       movement__14TNozzleTriggerFRC20TMarioControllerWork
 0001:8026C6E4       init__14TNozzleTriggerFv
 0001:8026C704       animation__11TNozzleBaseFi
 0001:8026CBBC       emit__11TNozzleBaseFi
 0001:8026CE88       emitCommon__11TNozzleBaseFiP14TWaterEmitInfo
 0001:8026D020       movement__11TNozzleBaseFRC20TMarioControllerWork
 0001:8026D0E8       calcGunAngle__11TNozzleBaseFRC20TMarioControllerWork
 0001:8026D21C       init__11TNozzleBaseFv
 0001:8026D240       __ct__11TNozzleBaseFPCcPCcP9TWaterGun
 0001:8026DA40       WaterGunDivingCtrlR__FP7J3DNodei
 0001:8026DC90       getWaistAngle__11TNozzleBaseFv
 0001:8026DC98       getNozzleKind__13TNozzleDeformCFv
 0001:8026DF9C       entry__6TYoshi
 0001:8026E2BC       viewCalc__6TYoshi
 0001:8026E33C       calcAnim__6TYoshiFv
 0001:8026E428       def_8026E378
 0001:8026E778       movement__6TYoshiFv
 0001:8026F020       def_8026E87C
 0001:8026F4AC       thinkHoldOut__6TYoshiFv
 0001:8026F60C       doEat__6TYoshiFUl
 0001:8026F730       doSearch__6TYoshiFv
 0001:8026FC90       thinkUpper__6TYoshiFv
 0001:8026FE38       thinkAnimation__6TYoshiFv
 0001:8027022C       getOff__6TYoshiFb
 0001:802703E8       ride__6TYoshi
 0001:802704D8       kill__6TYoshiFv
 0001:802705F0       disappear__6TYoshiFv
 0001:80270704       appearFromEgg__6TYoshiFRCQ29JGeometry8TVec3<f>fP9TEggYoshi
 0001:8027088C       setEggYoshiPtr__6TYoshiFP9TEggYoshi
 0001:80270894       getEmitPosDir__6TYoshiCFPQ29JGeometry8TVec3<f>PQ29JGeometry8TVec3<f>
 0001:802708E0       changeAnimation__6TYoshiFi
 0001:8027097C       thinkBtp__6TYoshiFi
 0001:80270A2C       initInLoadAfter__6TYoshiFv
 0001:80270B00       init__6TYoshiP6TMario
 0001:802715A4       getMtxPtrFootR__6TYoshiCFv
 0001:802715C0       getMtxPtrFootL__6TYoshiCFv
 0001:802715DC       getFrameCtrl__6TYoshiCFv
 0001:80271604       YoshiHeadCtrl__FP7J3DNodei
 0001:80271690       __sinit_Yoshi_cpp
 0001:8027198C       __dt__12TMarioEffectFv
 0001:80271A10       perform__12TMarioEffectFUlPQ26JDrama9TGraphics
 0001:80271CF0       setJumpIntoWaterEffectSmall__12TMarioEffectFv
 0001:80271E8C       setJumpIntoWaterEffect__12TMarioEffectFv
 0001:802720C4       init__12TMarioEffectFP6TMario
 0001:802722D4       __sinit_MarioEffect_cpp
 0001:802725D8       swimMain__6TMario
 0001:80272CD0       swimPaddle__6TMarioFv
 0001:80272E00       checkSwimJump__6TMarioFv
 0001:80272F70       doSwimming__6TMarioFv
 0001:802732F4       __sinit_MarioSwim_cpp
 0001:802735F0       SMS_IsMarioRoofing__Fv
 0001:8027361C       SMS_IsMarioFencing__Fv
 0001:80273648       SMS_GetMarioStatus__FP9THitActor
 0001:80273650       SMS_GetMarioRfPlane__Fv
 0001:8027365C       SMS_GetMarioWlPlane__Fv
 0001:80273668       SMS_GetMarioGrPlane__Fv
 0001:80273674       SMS_GetMarioStatus__Fv
 0001:80273680       SMS_WindMoveMario__FRCQ29JGeometry8TVec3<f>
 0001:802736A8       SMS_FlowMoveMario__FRCQ29JGeometry8TVec3<f>
 0001:802736D0       SMS_MarioWarpRequest__FRCQ29JGeometry8TVec3<f>f
 0001:802736F8       SMS_MarioMoveRequest__FRCQ29JGeometry8TVec3<f>
 0001:8027372C       SMS_IsMarioDashing__Fv
 0001:80273760       SMS_IsMarioOnYoshi__Fv
 0001:80273794       SMS_IsMarioOpeningDoor__Fv
 0001:802737BC       SMS_IsMarioOnWire__Fv
 0001:80273804       SMS_IsMarioTouchGround4cm__Fv
 0001:80273848       SMS_ThrowMario__FRCQ29JGeometry8TVec3<f>f
 0001:80273870       SMS_SendMessageToMario__FP9THitActorUl
 0001:802738C0       SMS_GetMarioWaterGun__Fv
 0001:802738CC       SMS_GetMarioGravity__Fv
 0001:802738D8       SMS_GetMarioGrLevel__Fv
 0001:802738E4       SMS_GetMarioDamageRadius__Fv
 0001:802738F0       SMS_GetMarioHP__Fv
 0001:802738FC       SMS_IsMarioHeadSlideAttack__Fv
 0001:80273928       SMS_IsMarioStatusElecDamage__Fv
 0001:8027394C       SMS_IsMarioStatusThrownDown__Fv
 0001:80273970       SMS_IsMarioStatusHipDrop__Fv
 0001:80273994       SMS_IsMarioStatusTypeSwimming__Fv
 0001:802739B4       SMS_IsMarioStatusTypeJumping__Fv
 0001:802739D4       SMS_GetMarioHitActor__Fv
 0001:802739DC       SMS_AskJumpIntoWaterEffectExist__Fv
 0001:80273A00       SMS_GetYoshi__Fv
 0001:80273A0C       SMS_SetMarioAccessParams__Fv
 0001:80273A70       __ct__Q26TMario14TSurfingParamsFPCc
 0001:80273ECC       __ct__Q26TMario12TDirtyParamsFv
 0001:80274350       __ct__Q26TMario15TGraffitoParams
 0001:80274754       __ct__Q26TMario11TWireParamsFv
 0001:80274A80       __ct__Q26TMario11TSwimParamsFv
 0001:80274FE8       __ct__Q26TMario10TRunParamsFv
 0001:8027540C       __ct__Q26TMario11TJumpParamsFv
 0001:80275C64       __ct__Q26TMario9TDeParamsFv
 0001:802765EC       setGamePad__6TMarioFP13TMarioGamePad
 0001:802765F4       resetHistory__6TMarioFv
 0001:802766B0       initValues__6TMarioFv
 0001:80276ADC       loadAfter__6TMarioFv
 0001:80276BD0       load__6TMarioFR20JSUMemoryInputStream
 0001:80276CB4       __ct__6TMarioFv
 0001:8027BB24       __sinit_MarioInit_cpp
 0001:8027BE34       @32@__dt__6TMarioFv
 0001:8027EA48       move__18TModelWaterManagerFv
 0001:8027FA9C       isWaterSlip__12TBGCheckDataCFv
 0001:8027FC84       emitRequest__18TModelWaterManagerRC14TWaterEmitInfo
 0001:802806F4       __ct__14TWaterEmitInfoFPCc
 0001:80280E1C       __dt__17TMarioPositionObjFv
 0001:80280E90       perform__17TMarioPositionObjFUlPQ26JDrama9TGraphics
 0001:80280E94       load__17TMarioPositionObjFR20JSUMemoryInputStream
 0001:80280FD8       getPosition__20JSUMemoryInputStreamCFv
 0001:80280FE0       getLength__20JSUMemoryInputStreamCFv
 0001:80280FE8       checkCollision__6TMarioFv
 0001:80282354       hangPole__6TMarioP9THitActor
 0001:802825E8       hitNormal__6TMarioP9THitActor
 0001:80282AF4       receiveMessage__6TMarioFP9THitActorUl
 0001:80283570       def_80282DDC
 0001:80284DB8       getGesso__6TMarioFP9THitActor
 0001:80284EDC       __sinit_MarioReceiveMsg_cpp
 0001:802851D8       __ct__17TMarioSoundValuesFv
 0001:8028522C       startSoundActor__6TMarioFUl
 0001:80285290       stopVoice__6TMarioFv
 0001:802852D8       startVoiceIfNoVoice__6TMarioFUl
 0001:8028537C       startVoice__6TMarioFUl
 0001:802853F8       getVoiceStatus__6TMarioFv
 0001:80285464       soundTorocco__6TMarioFv
 0001:80285558       animSound__6TMarioFv
 0001:8028583C       soundMovement__6TMarioFv
 0001:80287644       __ct__10TBaseParamFP7TParamsUsPCc
 0001:80287694       load__10TBaseParamFR20JSUMemoryInputStream
 0001:80287698       __dt__21TMarioParticleManagerFv
 0001:80287C94       emitAndBindToMtx__21TMarioParticleManagerFlPA4_fUcPCv
 0001:80287FDC       emitAndBindToMtxPtr__21TMarioParticleManagerFlPA4_fUcPCv
 0001:80288220       emitAndBindToPosPtr__21TMarioParticleManagerFlPCQ29JGeometry8TVec3<f>UcPCv
 0001:8028844C       emitWithRotate__21TMarioParticleManagerFlPCQ29JGeometry8TVec3<f>sssUcPCv
 0001:8028856C       emit__21TMarioParticleManagerFlPCQ29JGeometry8TVec3<f>UcPCv
 0001:80288780       perform__21TMarioParticleManagerFUlPQ26JDrama9TGraphics
 0001:80288B28       createEffectInfoAry__21TMarioParticleManagerFi
 0001:80288BEC       __ct__21TMarioParticleManagerFPCc
 0001:80288FFC       perform__13TEventWatcherFUlPQ26JDrama9TGraphics
 0001:8028903C       launchScript__13TEventWatcherFPCc
 0001:802890F8       __ct__13TEventWatcherFPCcPCc
 0001:80289190       __ct__13TEventWatcherFPCc
 0001:80289200       initUserBuiltin__32TSpcTypedBinary<13TEventWatcher>Fv
 0001:80289944       evStartMontemanFanfare__FP32TSpcTypedInterp<13TEventWatcher>Ul
 0001:802899E0       evStartMontemanBGM__FP32TSpcTypedInterp<13TEventWatcher>Ul
 0001:80289AB0       evIsWaterMelonIsReached__FP32TSpcTypedInterp<13TEventWatcher>Ul
 0001:80289C20       evInvalidatePad__FP32TSpcTypedInterp<13TEventWatcher>Ul
 0001:80289D64       evOnNeutralMarioKey__FP32TSpcTypedInterp<13TEventWatcher>Ul
 0001:80289E04       evWarpFrontToMario__FP32TSpcTypedInterp<13TEventWatcher>Ul
 0001:8028A038       evAppear8RedCoinsAndTimer__FP32TSpcTypedInterp<13TEventWatcher>Ul
 0001:8028A220       evAppearReadyGo__FP32TSpcTypedInterp<13TEventWatcher>Ul
 0001:8028A2C0       evSetEventForWaterMelon__FP32TSpcTypedInterp<13TEventWatcher>Ul
 0001:8028A484       evStartAppearJetBalloon__FP32TSpcTypedInterp<13TEventWatcher>Ul
 0001:8028A6E0       evWarpMario__FP32TSpcTypedInterp<13TEventWatcher>Ul
 0001:8028AA60       evSetCollision__FP32TSpcTypedInterp<13TEventWatcher>Ul
 0001:8028ACD4       evChangeSunglass__FP32TSpcTypedInterp<13TEventWatcher>Ul
 0001:8028AEC8       evStartMiss__FP32TSpcTypedInterp<13TEventWatcher>Ul
 0001:8028AF60       evStartEventSE__FP32TSpcTypedInterp<13TEventWatcher>Ul
 0001:8028B0E8       evStartSE__FP32TSpcTypedInterp<13TEventWatcher>Ul
 0001:8028B24C       evStopBGM__FP32TSpcTypedInterp<13TEventWatcher>Ul
 0001:8028B388       evPutNozzle__FP32TSpcTypedInterp<13TEventWatcher>Ul
 0001:8028B558       evEggYoshiStartFruit__FP32TSpcTypedInterp<13TEventWatcher>Ul
 0001:8028B728       evStartBGM__FP32TSpcTypedInterp<13TEventWatcher>Ul
 0001:8028C8B8       evKillWoodBox__FP32TSpcTypedInterp<13TEventWatcher>Ul
 0001:8028D2A0       evAppearShineForWoodBox__FP32TSpcTypedInterp<13TEventWatcher>Ul
 0001:8028D6C8       evAppearShineFromNPCWithoutDemo__FP32TSpcTypedInterp<13TEventWatcher>Ul
 0001:8028DB80       evAppearShineFromNPC__FP32TSpcTypedInterp<13TEventWatcher>Ul
 0001:8028E82C       evStartTimer__FP32TSpcTypedInterp<13TEventWatcher>Ul
 0001:8028E998       evInsertTimer__FP32TSpcTypedInterp<13TEventWatcher>Ul
 0001:8028EBCC       evForceCloseTalk__FP32TSpcTypedInterp<13TEventWatcher>Ul
 0001:80290208       evGetPollutionLevel__FP32TSpcTypedInterp<13TEventWatcher>Ul
 0001:80293010       __dt__32TSpcTypedInterp<13TEventWatcher>Fv
 0001:802930D8       dispatchBuiltin__32TSpcTypedInterp<13TEventWatcher>FUlUl
 0001:8029344C       saveOption__12TFlagManagerFR21JSUMemoryOutputStream
 0001:802935AC       loadOption__12TFlagManagerFR20JSUMemoryInputStream
 0001:802936E0       correctOptFlag__12TFlagManagerFv
 0001:802937BC       resetOpt__12TFlagManagerFv
 0001:802937CC       saveFail__12TFlagManagerFv
 0001:80293804       saveSuccess__12TFlagManagerFv
 0001:8029385C       save__12TFlagManagerFR21JSUMemoryOutputStream
 0001:802939F0       correctFlag__12TFlagManagerFv
 0001:80293BA8       firstStart__12TFlagManagerFv
 0001:80293DFC       restore__12TFlagManagerFv
 0001:80294050       load__12TFlagManagerFR20JSUMemoryInputStream
 0001:8029439C       setNozzleRight__12TFlagManagerFUcUc
 0001:8029443C       getNozzleRight__12TFlagManagerCFUcUc
 0001:802944CC       setBlueCoinFlag__12TFlagManagerFUcUc
 0001:80294580       getBlueCoinFlag__12TFlagManagerCFUcUc
 0001:80294610       incGoldCoinFlag__12TFlagManagerFUcl
 0001:802946AC       setShineFlag__12TFlagManagerFUc
 0001:80294728       getShineFlag__12TFlagManagerCFUc
 0001:8029476C       incMario__12TFlagManagerl
 0001:802947D0       decFlag__12TFlagManagerFUll
 0001:802947F4       incFlag__12TFlagManagerFUll
 0001:802948E4       setBool__12TFlagManagerFbUl
 0001:80294A14       def_80294910
 0001:80294A24       getBool__12TFlagManagerCFUl
 0001:80294B08       def_80294A50
 0001:80294B1C       setFlag__12TFlagManagerFUll
 0001:80294D4C       getFlag__12TFlagManagerCFUl
 0001:80294EEC       def_80294D70
 0001:80294EF4       resetStage__12TFlagManagerFv
 0001:802950A0       resetGame__12TFlagManagerFv
 0001:80295270       resetCard__12TFlagManagerFv
 0001:80295484       start__12TFlagManagerFP7JKRHeap
 0001:80295524       direct_dolby__10TGCLogoDirFv
 0001:80295688       direct_nlogo__10TGCLogoDirFv
 0001:80295C10       setup__10TGCLogoDirFPQ26JDrama8TDisplayP13TMarioGamePad
 0001:80296330       __ct__10TGCLogoDirFv
 0001:80296CD8       registerEventWatcher__12TMarDirectorFP13TEventWatcher
 0001:80296DF4       __ct__12TMarDirectorFv
 0001:80297170       __ct__Q212TMarDirector9TDemoInfoFv
 0001:8029717C       Initialize___Q27JGadget19TSingleNodeLinkListFv
 0001:80297194       __sinit_MarDirector_cpp
 0001:80297490       JSGFindObject__12TMarDirectorCFPCcQ26JStage8TEObject
 0001:80297584       moveStage__12TMarDirectorFv
 0001:80297734       def_80297704
 0001:802979B4       updateGameMode__12TMarDirectorFv
 0001:8029823C       set__13TGameSequenceFUcUcQ26JDrama10TFlagT<Us>
 0001:80298250       nextStateInitialize__12TMarDirectorFUc
 0001:802988C8       def_80298298
 0001:802988DC       setMario__12TMarDirectorFv
 0001:80298BB0       currentStateFinalize__12TMarDirectorFUc
 0001:80298E64       def_80298BF4
 0001:80298E80       changeState__12TMarDirectorFv
 0001:8029953C       def_80298EC0
 0001:802995EC       decideNextScenario__FUc
 0001:80299740       decideNextStage__Fv
 0001:80299824       set__Q26JDrama10TFlagT<Us>Us
 0001:8029982C       __ct__Q26JDrama10TFlagT<Us>RCQ26JDrama10TFlagT<Us>
 0001:80299838       direct__12TMarDirectorFv
 0001:8029A044       fireStreamingMovie__12TMarDirectorFUc
 0001:8029A1E0       def_8029A07C
 0001:8029A22C       fireEndDemoCamera__12TMarDirectorFv
 0001:8029A23C       fireStartDemoCamera__12TMarDirectorFPCcPCQ29JGeometry8TVec3<f>lfbPFUlUl_lUlPQ26JDrama6TActorQ26JDrama10TFlagT<Us>
 0001:8029A31C       setNextStage__12TMarDirectorFUsPQ26JDrama6TActor
 0001:8029A4AC       movement__12TMarDirectorFv
 0001:8029A4DC       fireRideYoshi__12TMarDirectorFP6TYoshi
 0001:8029A564       fireGetStar__12TMarDirectorFP6TShine
 0001:8029A5E0       fireGetNozzle__12TMarDirectorFP11TItemNozzle
 0001:8029A6F0       fireGetBlueCoin__12TMarDirectorFP5TCoin
 0001:8029A788       movement_game__12TMarDirectorFv
 0001:8029A94C       findNearestTalkNPC__12TMarDirectorFv
 0001:8029AE4C       initECDisp__12TMarDirectorFP12TPerformListPQ26JDrama55TViewObjPtrListT<Q26JDrama8TViewObj,Q26JDrama8TViewObj>PQ26JDrama55TViewObjPtrListT<Q26JDrama8TViewObj,Q26JDrama8TViewObj>
 0001:8029C520       __dt__12TMarDirectorFv
 0001:8029CFC0       MarErrInit__Fv
 0001:8029D0DC       getNameRef__14TMarNameRefGenCFPCc
 0001:8029F040       __dt__20TScenarioArchiveNameFv
 0001:8029F874       __ct__Q27JGadget26TList_pointer<P9THitActor>FRCQ27JGadget14TAllocator<Pv>
 0001:8029F8A4       __dt__Q26JDrama11TDrawBufObjFv
 0001:8029F91C       searchF__53TNameRefAryT<18TStagePositionInfo,Q26JDrama8TNameRef>FUsPCc
 0001:8029F9B8       loadAfter__53TNameRefAryT<18TStagePositionInfo,Q26JDrama8TNameRef>Fv
 0001:8029FA18       load__53TNameRefAryT<18TStagePositionInfo,Q26JDrama8TNameRef>FR20JSUMemoryInputStream
 0001:802A142C       load__55TNameRefAryT<20TScenarioArchiveName,Q26JDrama8TNameRef>FR20JSUMemoryInputStream
 0001:802A16E8       __ct__20TScenarioArchiveNameFRC20TScenarioArchiveName
 0001:802A1B08       __dt__53TNameRefAryT<18TStagePositionInfo,Q26JDrama8TNameRef>Fv
 0001:802A3FB8       setup__13TMenuDirectorFPQ26JDrama8TDisplayP13TMarioGamePad
 0001:802A41BC       __ct__13TMenuDirectorFv
 0001:802A4594       load__7TParamsFPCc
 0001:802A4790       finalize__7TParams
 0001:802A47A0       init__7TParams
 0001:802A47D4       load__7TParamsFR20JSUMemoryInputStream
 0001:802A48D8       load__30TParamT<Q29JGeometry8TVec3<f>>R20JSUMemoryInputStream
 0001:802A4980       load__10TParamT<l>FR20JSUMemoryInputStream
 0001:802A49D4       load__10TParamT<s>FR20JSUMemoryInputStream
 0001:802A4A28       load__11TParamT<Uc>FR20JSUMemoryInputStream
 0001:802A4B10       push_back__12TPerformListFPQ26JDrama8TViewObjUl
 0001:802A4BBC       __ct__Q37JGadget19TSingleNodeLinkList8iteratorFRCQ37JGadget19TSingleNodeLinkList8iterator
 0001:802A4BC8       __ct__Q37JGadget19TSingleNodeLinkList8iteratorFPPQ27JGadget19TSingleLinkListNode
 0001:802A4E0C       nullsub_25
 0001:802A4E28       perform__12TPerformListFUlPQ26JDrama9TGraphics
 0001:802A4F00       SMSSetupMovieRenderingInfo__FPQ26JDrama8TDisplay
 0001:802A5010       SMSSetupGameRenderingInfo__FPQ26JDrama8TDisplayb
 0001:802A514C       SMSSetupTitleRenderingInfo__FPQ26JDrama8TDisplay
 0001:802A5254       SMSSetupTitleRenderMode__FP16_GXRenderModeObj
 0001:802A5364       SMSSetupGCLogoRenderingInfo__FPQ26JDrama8TDisplay
 0001:802A541C       SMSGetRederRect_Game__Fv
 0001:802A5470       __dt__12TSnapTimeObjFv
 0001:802A54E4       perform__12TSnapTimeObjFUlPQ26JDrama9TGraphics
 0001:802A563C       associateNPC__11TTalkCursorFP8TBaseNPC
 0001:802A57F8       SMS_ResetTexCacheRegion__Fv
 0001:802A5834       __dt__11TAlphaCatchFv
 0001:802A5998       mountStageArchive__12TApplicationFv
 0001:802A5B44       drawDVDErr__12TApplicationFv
 0001:802A5C5C       def_802A5B90
 0001:802A5F50       gameLoop__12TApplicationFv
 0001:802A6380       crTimeAry__8TTimeRecFv
 0001:802A6398       proc__12TApplicationFv
 0001:802A6644       def_802A63E0
 0001:802A69CC       finalize__12TApplicationFv
 0001:802A6DD0       initialize_bootAfter__12TApplicationFv
 0001:802A73C4       initialize__12TApplication
 0001:802A7878       SetupThreadFuncBoot__FPv
 0001:802A7A34       SMSLoadArchive__FPCcPvUlP7JKRHeap
 0001:802A7B08       __ct__12TApplication
 0001:802A7BD8       SMSGetAnmFrameRate__Fv
 0001:802A7C48       SMSGetVSyncTimesPerSec__Fv
 0001:802A7CB0       __dt__13TMarioGamePadFv
 0001:802A7D14       __sinit_Application_cpp
 0001:802A8054       read__13TMarioGamePadFv
 0001:802A80D4       onNeutralMarioKey__13TMarioGamePadFv
 0001:802A80E0       updateMeaning__13TMarioGamePadFv
 0001:802A897C       reset__13TMarioGamePadFv
 0001:802A89F4       __sinit_MarioGamePad_cpp
 0001:802A8A00       load__15TStageEventInfoFR20JSUMemoryInputStream
 0001:802A8A98       SMS_getShineIDofExStage__FUc
 0001:802A8AC8       SMS_getShineStage__FUc
 0001:802A8AE0       SMS_isOptionMap__Fv
 0001:802A8AFC       SMS_isDivingMap__Fv
 0001:802A8B30       SMS_isMultiPlayerMap__Fv
 0001:802A8B58       SMS_isExMap__Fv
 0001:802A8B80       SMSGetGCLogoVideoHeight__F
 0001:802A8BA0       SMSGetGCLogoVideoWidth__Fv
 0001:802A8BA8       SMSGetGCLogoRenderHeight__Fv
 0001:802A8BB0       SMSGetGCLogoRenderWidth__Fv
 0001:802A8BB8       SMSGetTitleRenderHeight__Fv
 0001:802A8BC0       SMSGetTitleRenderWidth__Fv
 0001:802A8BC8       SMSGetGameRenderHeight__Fv
 0001:802A8BD0       SMSGetGameRenderWidth__Fv
 0001:802A8BD8       SMSGetTitleVideoHeight__Fv
 0001:802A8C3C       SMSGetTitleVideoWidth__Fv
 0001:802A8C44       SMSGetGameVideoHeight__Fv
 0001:802A8CA8       SMSGetGameVideoWidth__Fv
 0001:802A8CB0       load__18TStagePositionInfoFR20JSUMemoryInputStream
 0001:802A8D78       __ct__13TProcessMeterFl
 0001:802A8DB8       drawSyncCallback__8TTimeRecFUs
 0001:802A8E08       snapGXTime__8TTimeRecFUl
 0001:802A8EB4       flip__8TTimeRecFv
 0001:802A8F44       __ct__10TTimeArray
 0001:802A8F50       start__8TTimeRecFUs
 0001:802A8FEC       append__10TTimeArrayFUlUl
 0001:802A9020       pushBreakPoint__16TDrawSyncManagerFv
 0001:802A9078       drawSyncCallbackSub__16TDrawSyncManagerFUs
 0001:802A913C       setCallback__16TDrawSyncManagerUlUsUsP17TDrawSyncCallback
 0001:802A9318       drawSyncCallback__16TDrawSyncManagerFUs
 0001:802A934C       start__16TDrawSyncManagerUlUll
 0001:802A982C       __ct__Q216TDrawSyncManager19TDrawSyncTokenRangeUsUsP17TDrawSyncCallback
 0001:802A983C       __dt__10TTHPRenderFv
 0001:802A98B0       perform__10TTHPRenderFUlPQ26JDrama9TGraphics
 0001:802A9920       __ct__10TTHPRenderFPCc
 0001:802AA718       getNameRef_Enemy__14TMarNameRefGenCPCc
 0001:802AC7E0       nullsub_24
 0001:802AC7E4       __ct__Q26JDrama6TActorPCc
 0001:802AC998       getNameRef_Map__14TMarNameRefGenCFPCc
 0001:802ACCD0       getNameRef_MapObj__14TMarNameRefGenCFPCc
 0001:802B04AC       __ct__6TFenceFPCc
 0001:802B0628       getNameRef_NPC__14TMarNameRefGenCFPCc
 0001:802B18A8       def_802B170C
 0001:802B2E50       getReadStream__12TCardManagerFP20JSUMemoryInputStream
 0001:802B30E0       __dt__12TCardManagerFv
 0001:802B318C       __ct__12TCardManagerFPvPvllPvUl
 0001:802B3258       __ct__Q212TCardManager9TCriteriaFv
 0001:802B3490       set__Q212TCardManager9TCriteriaFQ312TCardManager9TCriteria11TEBlockStatUlPCv
 0001:802B35CC       thpInit__12TMarDirectorFv
 0001:802B36E8       loadParticleMario__12TMarDirectorFv
 0001:802B494C       loadParticle__12TMarDirectorFv
 0001:802B52CC       initLoadParticle__12TMarDirectorFv
 0001:802B5458       loadResource__12TMarDirectorFv
 0001:802B5834       __sinit_MarDirectorLoadResource_cpp
 0001:802B666C       rsetup__14TMovieDirectorFv
 0001:802B6FDC       setupThreadFunc__14TMovieDirectorFPv
 0001:802B6FFC       __ct__14TMovieDirectorFv
 0001:802B70DC       getStreamMovieName__14TMovieDirectorFUl
 0001:802B721C       __ct__13TEndingStringFPCc
 0001:802B767C       createObjects__12TMarDirectorFv
 0001:802B76F4       setupObjects__12TMarDirectorFv
 0001:802B7A24       def_802B77E8
 0001:802B97A8       decideMarioPosIdx__12TMarDirectorFv
 0001:802B9A24       def_802B992C
 0001:802B9D74       proc__17MSStageCubeSwitchF
 0001:802B9F4C       proc__20MSStageCubeFadeMonteFv
 0001:802BB6F8       startStageBGM__10MSMainProcFUcUc
 0001:802BB87C       nullsub_3
 0001:802BB880       startStageEntranceDemo__10MSMainProcFUcUc
 0001:802BBD60       def_802BBD4C
 0001:802BC254       def_802BBA1C
 0001:802BC2F8       setBossLivesFlag2__10MSMainProcFb
 0001:802BC34C       setBossLivesFlag__10MSMainProcFb
 0001:802BC948       loadAfter__12TTargetArrowFv
 0001:802BC9AC       __ct__10JKRArchiveFv
 0001:802BC9F8       __ct__10JKRArchiveFlQ210JKRArchive10EMountMode
 0001:802BCAB0       __dt__10JKRArchiveFv
 0001:802BCB14       findDirectory__10JKRArchiveCFPCcUl
 0001:802BCFB8       findPtrResource__10JKRArchiveCFPCv
 0001:802BD08C       store__Q210JKRArchive8CArcNameFPCcc
 0001:802BD680       fetchResource__14JKRAramArchiveFPvUlPQ210JKRArchive12SDIFileEntryPUl
 0001:802BD978       __ct__11JKRAramHeapFUlUl
 0001:802BDD2C       create__7JKRAramUlUllll
 0001:802BDDBC       __ct__7JKRAramFUlUll
 0001:802BEC18       check_mount_already__10JKRArchiveFl
 0001:802BEC6C       mount__10JKRArchiveFPCcQ210JKRArchive10EMountModeP7JKRHeapQ210JKRArchive15EMountDirection
 0001:802BEE30       becomeCurrent__10JKRArchiveFPCc
 0001:802BEEC0       getDirEntry__10JKRArchiveCFPQ210JKRArchive9SDirEntryUl
 0001:802BEFF0       getResource__10JKRArchiveFPCc
 0001:802BF074       getResource__10JKRArchiveFUlPCc
 0001:802BF0F8       readResource__10JKRArchiveFPvUlUlPCc
 0001:802BF1A8       readResource__10JKRArchiveFPvUlPCc
 0001:802BF254       removeResourceAll__10JKRArchiveFv
 0001:802BF2EC       removeResource__10JKRArchiveFPv
 0001:802BF34C       detachResource__10JKRArchiveFPv
 0001:802BF388       getResSize__10JKRArchiveCFPCv
 0001:802BF3BC       countFile__10JKRArchiveCFPCc
 0001:802BF41C       getFirstFile__10JKRArchiveCFPCc
 0001:802BFFF4       __ct__11JKRDisposerFv
 0001:802C006C       __dt__11JKRDisposerFv
 0001:802C0A0C       __ct__10JKRDvdFileFv
 0001:802C0A78       __ct__10JKRDvdFileFl
 0001:802C0B14       __dt__10JKRDvdFileFv
 0001:802C0C20       open__10JKRDvdFileFPCc
 0001:802C0C98       open__10JKRDvdFileFl
 0001:802C0F8C       createRoot__10JKRExpHeapib
 0001:802C100C       create__10JKRExpHeapUlP7JKRHeapb
 0001:802C10F0       create__10JKRExpHeapPvUlP7JKRHeapb
 0001:802C2C14       __ct__12JKRArcFinderFP10JKRArchivell
 0001:802C2CB0       findNextFile__12JKRArcFinderFv
 0001:802C2D68       __dt__12JKRArcFinderFv
 0001:802C2DC4       __ct__13JKRFileLoaderFv
 0001:802C2E24       __dt__13JKRFileLoaderFv
 0001:802C2EB0       unmount__13JKRFileLoaderFv
 0001:802C2F00       getVolume__13JKRFileLoaderPCc
 0001:802C2F6C       changeDirectory__13JKRFileLoaderFPCc
 0001:802C2FB0       getGlbResource__13JKRFileLoaderFPCc
 0001:802C2FFC       getGlbResource__13JKRFileLoaderFPCcP13JKRFileLoader
 0001:802C3094       getResSize__13JKRFileLoaderFPvP13JKRFileLoader
 0001:802C3124       findVolume__13JKRFileLoaderFPPCc
 0001:802C31B0       findFirstFile__13JKRFileLoaderFPCc
 0001:802C3278       fetchVolumeName__13JKRFileLoaderFPclPCc
 0001:802C3360       __sinit_JKRFileLoader_cpp
 0001:802C3404       __ct__7JKRHeapFPvUlP7JKRHeapb
 0001:802C3524       __dt__7JKRHeapFv
 0001:802C363C       initArena__7JKRHeapFPPcPUli
 0001:802C3720       becomeSystemHeap__7JKRHeap
 0001:802C3730       becomeCurrentHeap__7JKRHeap
 0001:802C3740       alloc__7JKRHeapUliP7JKRHeap
 0001:802C37B8       free__7JKRHeapFPvP7JKRHeap
 0001:802C3810       freeAll__7JKRHeapFv
 0001:802C3860       findFromRoot__7JKRHeapFPv
 0001:802C389C       find__7JKRHeapCFPv
 0001:802C39A8       dispose_subroutine__7JKRHeapFUlUl
 0001:802C3A4C       dispose__7JKRHeapFPvUl
 0001:802C3A74       dispose__7JKRHeapFPvPv
 0001:802C3A94       dispose__7JKRHeapFv
 0001:802C3AE4       copyMemory__7JKRHeapFPvPvUl
 0001:802C3B70       JKRDefaultMemoryErrorRoutine__FPvUli
 0001:802C3BA4       __nw__FUl
 0001:802C3BEC       __nw__FUli
 0001:802C3C38       __nw__FUlP7JKRHeapi
 0001:802C3CA4       __nwa__Ul
 0001:802C3CEC       __nwa__FUli
 0001:802C3D38       __nwa__FUlP7JKRHeapi
 0001:802C3DA4       __dl__Pv
 0001:802C3E08       __dla__FPv
 0001:802C3E6C       state_register__7JKRHeapCFPQ27JKRHeap6TStateUl
 0001:802C3E70       state_compare__7JKRHeapCFRCQ27JKRHeap6TStateRCQ27JKRHeap6TState
 0001:802C3E88       state_dump__7JKRHeapCFRCQ27JKRHeap6TState
 0001:802C3E8C       dump_sort__7JKRHeapFv
 0001:802C3E94       changeGroupID__7JKRHeapFUc
 0001:802C3E9C       getCurrentGroupId__7JKRHeapFv
 0001:802C3EA4       __ct__13JKRMemArchiveFv
 0001:802C3EE0       __ct__13JKRMemArchiveFlQ210JKRArchive15EMountDirection
 0001:802C40EC       mountFixed__13JKRMemArchiveFPv15JKRMemBreakFlag
 0001:802C41FC       unmountFixed__13JKRMemArchiveFv
 0001:802C43A8       open__13JKRMemArchiveFPvUl15JKRMemBreakFlag
 0001:802C46CC       create__12JKRSolidHeapFUlP7JKRHeapb
 0001:802C4EFC       __ct__10JKRStdHeapFPvUlP7JKRHeapb
 0001:802C4F50       __dt__10JKRStdHeapFv
 0001:802C51E0       getSize__10JKRStdHeapFPv
 0001:802C5204       getTotalFreeSize__10JKRStdHeapFv
 0001:802C5230       getHeapType__10JKRStdHeapFv
 0001:802C523C       check__10JKRStdHeapFv
 0001:802C526C       dump__10JKRStdHeapFv
 0001:802C52B0       __ct__9JKRThreadFUlii
 0001:802C53E0       __dt__9JKRThreadFv
 0001:802C54B8       start__9JKRThreadFPv
 0001:802C54E4       run__9JKRThreadFv
 0001:802C54EC       __sinit_JKRThread_cpp
 0001:802C5590       __dt__15JSUOutputStreamFv
 0001:802C55EC       write__15JSUOutputStreamFPCvl
 0001:802C5644       skip__15JSUOutputStreamFlSc
 0001:802C56D0       seek__21JSURandomOutputStreamFl17JSUStreamSeekFrom
 0001:802C5714       __dt__14JSUInputStreamFv
 0001:802C5770       read__14JSUInputStreamFPvl
 0001:802C57C8       readString__14JSUInputStreamFv
 0001:802C589C       readString__14JSUInputStreamFPcUs
 0001:802C59BC       skip__14JSUInputStreamFl
 0001:802C5A44       align__20JSURandomInputStreamFl
 0001:802C5AD4       skip__20JSURandomInputStreamFl
 0001:802C5B30       peek__20JSURandomInputStreamFPvl
 0001:802C5BEC       seek__20JSURandomInputStreamFl17JSUStreamSeekFrom
 0001:802C5C30       __ct__10JSUPtrLinkFPv
 0001:802C5C48       __dt__10JSUPtrLinkFv
 0001:802C5CA8       __ct__10JSUPtrListFb
 0001:802C5CE4       __dt__10JSUPtrListFv
 0001:802C5D4C       initiate__10JSUPtrList
 0001:802C5D60       append__10JSUPtrListFP10JSUPtrLink
 0001:802C5E1C       prepend__10JSUPtrListFP10JSUPtrLink
 0001:802C5ED8       insert__10JSUPtrListFP10JSUPtrLinkP10JSUPtrLink
 0001:802C60B4       remove__10JSUPtrListFP10JSUPtrLink
 0001:802C6164       setBuffer__20JSUMemoryInputStreamFPCvl
 0001:802C6178       readData__20JSUMemoryInputStreamFPvl
 0001:802C61F0       seekPos__20JSUMemoryInputStreamFl17JSUStreamSeekFrom
 0001:802C626C       setBuffer__21JSUMemoryOutputStreamFPvl
 0001:802C6280       writeData__21JSUMemoryOutputStreamFPCvl
 0001:802C62F4       seekPos__21JSUMemoryOutputStreamFl17JSUStreamSeekFrom
 0001:802C6370       getLength__21JSUMemoryOutputStreamCFv
 0001:802C6378       getPosition__21JSUMemoryOutputStreamCFv
 0001:802C6380       __ct__18JSUFileInputStreamFP7JKRFile
 0001:802C63C4       readData__18JSUFileInputStreamFPvl
 0001:802C6498       seekPos__18JSUFileInputStreamFl17JSUStreamSeekFrom
 0001:802C6580       __dt__18JSUFileInputStreamFv
 0001:802C65F4       getLength__18JSUFileInputStreamCFv
 0001:802C6624       getPosition__18JSUFileInputStreamCFv
 0001:802C7A34       createFB__12JUTExceptionFv
 0001:802C80EC       __ct__13JUTExternalFBFP16_GXRenderModeObj8_GXGammaPvUl
 0001:802C8598       changeFrameBuffer__14JUTDirectPrintFPvUsUs
 0001:802C8780       __ct__7JUTFontFv
 0001:802C87EC       initiate__7JUTFontFv
 0001:802C87F0       setCharColor__7JUTFontFQ28JUtility6TColor
 0001:802C8814       setGradColor__7JUTFontFQ28JUtility6TColorQ28JUtility6TColor
 0001:802C8838       drawString_size_scale__7JUTFontFffffPCcUlb
 0001:802C8928       __dt__7JUTFontFv
 0001:802C8974       setGX__7JUTFontFQ28JUtility6TColorQ28JUtility6TColor
 0001:802C89A0       __ct__10JUTGamePadFQ210JUTGamePad8EPadPort
 0001:802C8A7C       __dt__10JUTGamePad
 0001:802C8B28       initList__10JUTGamePadFv
 0001:802C8B64       init__10JUTGamePad
 0001:802C8B9C       read__10JUTGamePadFv
 0001:802C8EC0       assign__10JUTGamePadFv
 0001:802C8F70       update__10JUTGamePadFv
 0001:802C9158       checkResetSwitch__10JUTGamePadFv
 0001:802C91D8       clearForReset__10JUTGamePadFv
 0001:802C9204       clear__Q210JUTGamePad7CButtonFv
 0001:802C9240       update__Q210JUTGamePad7CButtonFPC9PADStatusUl
 0001:802C93D0       clear__Q210JUTGamePad6CStickFv
 0001:802C93EC       update__Q210JUTGamePad6CStickFScScQ210JUTGamePad10EStickModeQ210JUTGamePad11EWhichStick
 0001:802C9588       getButton__Q210JUTGamePad6CStickFv
 0001:802C9634       clear__Q210JUTGamePad7CRumbleFP10JUTGamePad
 0001:802C96A0       stopMotor__Q210JUTGamePad7CRumbleFi
 0001:802C9700       stopMotorHard__Q210JUTGamePad7CRumbleFi
 0001:802C9760       update__Q210JUTGamePad7CRumbleFs
 0001:802C992C       setEnable__Q210JUTGamePad7CRumbleFUl
 0001:802C9A30       setRepeat__Q210JUTGamePad7CButtonFUlUlUl
 0001:802C9A4C       setButtonRepeat__10JUTGamePadFUlUlUl
 0001:802C9B54       read__16JUTGamePadRecordFv
 0001:802C9C00       write__16JUTGamePadRecordFP9PADStatus
 0001:802C9CBC       streamDataToPadStatus__16JUTGamePadRecordFP9PADStatusPUc
 0001:802C9EE0       __ct__Q210JUTGamePad6CStickFv
 0001:802C9EFC       __ct__Q210JUTGamePad7CButtonFv
 0001:802C9F38       __dt__21JSUList<10JUTGamePad>Fv
 0001:802C9F90       __ct__10JUTNameTabFPC7ResNTAB
 0001:802C9FB4       getIndex__10JUTNameTabCPCc
 0001:802CA050       getName__10JUTNameTabCUs
 0001:802CA080       calcKeyCode__10JUTNameTabCFPCc
 0001:802CA0B0       storeTLUT__10JUTPaletteF7_GXTlutP7ResTLUT
 0001:802CA1E0       set__7JUTRectiiii
 0001:802CA1F4       copy__7JUTRectFRC7JUTRect
 0001:802CA218       add__7JUTRectFii
 0001:802CA24C       intersect__7JUTRectFRC7JUTRect
 0001:802CA2CC       move__7JUTRectFii
 0001:802CA308       resize__7JUTRectFii
 0001:802CA324       reform__7JUTRectFiiii
 0001:802CA358       normalize__7JUTRectFv
 0001:802CA38C       isEmpty__7JUTRectCFv
 0001:802CA3BC       getResource__15JUTResReferenceFP14JSUInputStreamUlP10JKRArchive
 0001:802CA4EC       __ct__10JUTTextureFii9_GXTexFmt
 0001:802CA5D0       __dt__10JUTTextureFv
 0001:802CA640       storeTIMG__10JUTTextureFPC7ResTIMG
 0001:802CADA8       JMAHermiteInterpolation__Ffffffff
 0001:802CAE18       __ct__7J2DPaneFv
 0001:802CAF50       __ct__7J2DPaneFP7J2DPaneUsbUlRC7JUTRect
 0001:802CB0B0       __ct__7J2DPaneFUsUlRC7JUTRect
 0001:802CB1E4       __ct__7J2DPaneFP7J2DPaneP20JSURandomInputStreamb
 0001:802CB5F4       __dt__7J2DPaneFv
 0001:802CB6D4       draw__7J2DPaneFiiPC14J2DGrafContextb
 0001:802CBACC       drawSelf__7J2DPaneFiiPA3_A4_f
 0001:802CBAD0       __dt__14J2DGrafContextFv
 0001:802CBB1C       clip__7J2DPaneFRC7JUTRect
 0001:802CBB68       search__7J2DPaneFUl
 0001:802CBBFC       makeMatrix__7J2DPaneFii
 0001:802CBD68       setCullBack__7J2DPaneF11_GXCullMode
 0001:802CBE54       setBasePosition__7J2DPaneF15J2DBasePosition
 0001:802CBF1C       setConnectParent__7J2DPaneFb
 0001:802CBF2C       drawSelf__7J2DPaneFii
 0001:802CBF30       __ct__10J2DPictureFP7J2DPaneP20JSURandomInputStreamb
 0001:802CC3BC       __dt__10J2DPictureFv
 0001:802CC6A0       changeTexture__10J2DPictureFPC7ResTIMGUc
 0001:802CC758       drawSelf__10J2DPictureFii
 0001:802CC7C0       drawSelf__10J2DPictureFiiPA3_A4_f
 0001:802CC838       drawFullSet__10J2DPictureFiiii10J2DBinding9J2DMirrorb11J2DWrapmode11J2DWrapmodePA3_A4_f
 0001:802CCEF4       draw__10J2DPictureFiiiibbb
 0001:802CD2EC       drawTexCoord__10J2DPictureFiiiiffffffffPA3_A4_f
 0001:802CD4E4       setTevMode__10J2DPictureFv
 0001:802CD938       swap__10J2DPictureFRfRf
 0001:802CD94C       setBlendKonstColor__10J2DPictureFv
 0001:802CDA84       setBlendKonstAlpha__10J2DPictureFv
 0001:802CDC7C       __ct__8J2DPrintFP7JUTFonti
 0001:802CDCF8       __ct__8J2DPrintFP7JUTFontiiQ28JUtility6TColorQ28JUtility6TColor
 0001:802CDD70       __dt__8J2DPrintFv
 0001:802CDDBC       initiate__8J2DPrintFv
 0001:802CDE44       private_initiate__8J2DPrintFP7JUTFontiiQ28JUtility6TColorQ28JUtility6TColor
 0001:802CDFCC       setBuffer__8J2DPrintFUl
 0001:802CE038       setFontSize__8J2DPrintFv
 0001:802CE098       locate__8J2DPrintFii
 0001:802CE0EC       print__8J2DPrintFiiPCce
 0001:802CE1C0       print__8J2DPrintFiiUcPCce
 0001:802CE294       getWidth__8J2DPrintFPCce
 0001:802CE3A0       printReturn__8J2DPrintFPCcii18J2DTextBoxHBinding18J2DTextBoxVBindingiiUc
 0001:802CE5FC       parse__8J2DPrintFPCUciiPUsRQ28J2DPrint5TSizeUcb
 0001:802CEFA8       def_802CEE60
 0001:802CF6E4       __dt__9J2DScreenFv
 0001:802CF748       makeHiearachyPanes__9J2DScreenFP7J2DPaneP20JSURandomInputStreambbbPl
 0001:802CFCDC       def_802CFB88
 0001:802CFD28       makeUserPane__9J2DScreenFUsP7J2DPaneP20JSURandomInputStream
 0001:802CFD64       makeUserPane__9J2DScreenFUlP7J2DPaneP20JSURandomInputStream
 0001:802CFDA8       draw__9J2DScreenFiiPC14J2DGrafContext
 0001:802D0050       search__9J2DScreenFUl
 0001:802D0080       __ct__12J2DSetScreenFPCcP10JKRArchive
 0001:802D01C8       drawSelf__9J2DScreenFiiPA3_A4_f
 0001:802D0280       __dt__12J2DSetScreenFv
 0001:802D02F4       __ct__10J2DTextBoxFPC7ResFONTPCc
 0001:802D0388       __ct__10J2DTextBoxFP7J2DPaneP20JSURandomInputStreamb
 0001:802D0848       __ct__10J2DTextBoxFUlRC7JUTRectPC7ResFONTPCc18J2DTextBoxHBinding18J2DTextBoxVBinding
 0001:802D08E4       initiate__10J2DTextBoxFPC7ResFONTPCc18J2DTextBoxHBinding18J2DTextBoxVBinding
 0001:802D0A14       __dt__10J2DTextBoxFv
 0001:802D0AB8       setFont__10J2DTextBoxFP7JUTFont
 0001:802D0B28       draw__10J2DTextBoxFii
 0001:802D0C60       getStringPtr__10J2DTextBoxCFv
 0001:802D0C68       setString__10J2DTextBoxFPCce
 0001:802D0D38       setConnectParent__10J2DTextBoxFb
 0001:802D0D70       drawSelf__10J2DTextBoxFii
 0001:802D0DD8       drawSelf__10J2DTextBoxFiiPA3_A4_f
 0001:802D0F14       resize__10J2DTextBoxFii
 0001:802D0FC4       __ct__9J2DWindowFP7J2DPaneP20JSURandomInputStreamb
 0001:802D2A2C       J3DPSCalcInverseTranspose__FPA4_fPA3_f
 0001:802D2AF4       J3DGetTranslateRotateMtx__FRC16J3DTransformInfoPA4_f
 0001:802D3254       J3DPSMtx33CopyFrom34__FPA4_fPA3_f
 0001:802D32CC       J3DMTXConcatArrayIndexedSrc__FPA4_CfPA3_A4_CfPCUsPA3_A4_fUl
 0001:802D3404       J3DPSMtxArrayConcat__FPA4_fPA4_fPA4_fUl
 0001:802D34E0       deform__13J3DDeformDataFP8J3DModel
 0001:802D3FD4       __ct__13J3DSkinDeformFv
 0001:802D3FFC       initMtxIndexArray__13J3DSkinDeformFP12J3DModelData
 0001:802D43D8       calcNrmMtx__13J3DSkinDeformFP8J3DModel
 0001:802D4504       deform__13J3DSkinDeformFP8J3DModel
 0001:802D49AC       __dt__13J3DSkinDeformFv
 0001:802D4AE4       __ct__15J3DMtxCalcBasic
 0001:802D4CE8       updateOut__7J3DNodeFv
 0001:802D4CEC       updateIn__7J3DNodeFv
 0001:802D4EAC       calcOut__7J3DNodeFv
 0001:802D4EB0       calcIn__7J3DNodeFv
 0001:802D4F30       entryIn__7J3DNodeFv
 0001:802D5654       J3DNewMtxCalcAnm__FUlP15J3DAnmTransform
 0001:802D5954       initialize__8J3DJointFv
 0001:802D5A48       addMesh__8J3DJointFP11J3DMaterial
 0001:802D5A68       updateIn__8J3DJointFv
 0001:802D5CA0       updateOut__8J3DJointFv
 0001:802D5CC4       calcIn__8J3DJointFv
 0001:802D5D44       calcOut__8J3DJointFv
 0001:802D5D68       entryIn__8J3DJointFv
 0001:802D5F40       getType__8J3DJointCFv
 0001:802D5F4C       __dt__8J3DJointFv
 0001:802D5FB0       init__7J3DNodeFP12J3DModelData
 0001:802D6C58       __ct__12J3DColorChanFv
 0001:802D6CBC       calcColorChanID__FUsUcUcUcUcUc
 0001:802D6E38       __ct__10J3DGXColorFv
 0001:802D6E3C       __dt__13J3DColorBlockFv
 0001:802D6F58       __ct__11J3DTexCoordFv
 0001:802D6F78       __dt__14J3DTexGenBlockFv
 0001:802D6FC4       createTevBlock__11J3DMaterialFi
 0001:802D7380       nullsub_77
 0001:802D775C       __dt__11J3DIndBlockFv
 0001:802D77A8       createPEBlock__11J3DMaterialFiUl
 0001:802D78F0       __dt__10J3DPEBlockFv
 0001:802D793C       initialize__11J3DMaterialFv
 0001:802D798C       addShape__11J3DMaterialFP8J3DShape
 0001:802D7994       countDLSize__21J3DColorBlockLightOffFv
 0001:802D799C       countDLSize__20J3DColorBlockLightOnFv
 0001:802D79A4       countDLSize__19J3DTexGenBlockBasicFv
 0001:802D79AC       countDLSize__12J3DTevBlock1Fv
 0001:802D79B4       countDLSize__12J3DTevBlock2Fv
 0001:802D79BC       countDLSize__12J3DTevBlock4Fv
 0001:802D79C4       countDLSize__13J3DTevBlock16Fv
 0001:802D79CC       countDLSize__15J3DIndBlockFullFv
 0001:802D79D4       countDLSize__13J3DPEBlockOpaFv
 0001:802D79F4       countDLSize__11J3DMaterialFv
 0001:802DB274       calc__19J3DTexGenBlockBasicFPA4_f
 0001:802DB504       calc__11J3DMaterialFPA4_f
 0001:802DB534       setCurrentMtx__11J3DMaterialFv
 0001:802DB660       copy__11J3DMaterialFP11J3DMaterial
 0001:802DB720       reset__10J3DPEBlockFP10J3DPEBlock
 0001:802DB724       reset__11J3DIndBlockFP11J3DIndBlock
 0001:802DB730       reset__13J3DColorBlockFP13J3DColorBlock
 0001:802DB734       change__11J3DMaterialFv
 0001:802DB76C       newSharedDisplayList__11J3DMaterialFUl
 0001:802DB7E4       getType__14J3DPEBlockFullFv
 0001:802DB7F0       setFog__14J3DPEBlockFullFP6J3DFog
 0001:802DB7F8       replaceFog__14J3DPEBlockFullFP6J3DFog
 0001:802DB808       getFog__14J3DPEBlockFullFv
 0001:802DB810       setAlphaComp__14J3DPEBlockFullF12J3DAlphaComp
 0001:802DB82C       setAlphaComp__14J3DPEBlockFullFPC12J3DAlphaComp
 0001:802DCDA8       setFog__10J3DPEBlockFP6J3DFog
 0001:802DCDAC       replaceFog__10J3DPEBlockFP6J3DFog
 0001:802DCDB4       nullsub_90
 0001:802DCDB8       nullsub_91
 0001:802DCDBC       nullsub_92
 0001:802DCDC0       nullsub_93
 0001:802DCDC4       nullsub_94
 0001:802DCDC8       nullsub_95
 0001:802DCDCC       nullsub_96
 0001:802DCDD0       nullsub_97
 0001:802DCDD4       nullsub_98
 0001:802DCDD8       nullsub_99
 0001:802DCF64       load__15J3DIndBlockNullFP11J3DTevBlock
 0001:802DCF68       clear__12J3DModelDataFv
 0001:802DCFDC       __ct__12J3DModelDataFv
 0001:802DD030       __dt__12J3DModelData
 0001:802DD0A0       makeHierarchy__12J3DModelDataP7J3DNodePPC17J3DModelHierarchy
 0001:802DD18C       def_802DD0F8
 0001:802DD24C       getType__7J3DNodeCFv
 0001:802DD258       isDeformableVertexFormat__12J3DModelDataCFv
 0001:802DD2DC       setMaterialTable__12J3DModelDataFP16J3DMaterialTable19J3DMaterialCopyFlag
 0001:802DD448       entryTexMtxAnimator__12J3DModelDataP19J3DAnmTextureSRTKey
 0001:802DDDF0       __ct__8J3DModelFv
 0001:802DDE2C       __ct__8J3DModelFP12J3DModelDataUlUl
 0001:802DDEA0       __dt__8J3DModelFv
 0001:802DDEEC       initialize__8J3DModelFv
 0001:802DDF90       entryModelData__8J3DModelFP12J3DModelDataUlUl
 0001:802DE470       lock__8J3DModelFv
 0001:802DE5A0       unlock__8J3DModelFv
 0001:802DE6D0       makeDL__8J3DModelFv
 0001:802DE768       setSkinDeform__8J3DModelFP13J3DSkinDeform19J3DDeformAttachFlag
 0001:802DE7E4       calcWeightEnvelopeMtx__8J3DModelFv
 0001:802DE9C0       update__8J3DModelFv
 0001:802DEBC4       calc__8J3DModelFv
 0001:802DEDC8       entry__8J3DModelFv
 0001:802DEEB8       viewCalc__8J3DModelFv
 0001:802DF0F0       calcNrmMtx__8J3DModelFv
 0001:802DF248       calcBumpMtx__8J3DModelFv
 0001:802DF33C       calcBBoard__8J3DModelFv
 0001:802DF844       prepareShapePackets__8J3DModelFv
 0001:802DFA08       __ct__7J3DNodeFv
 0001:802DFA2C       __dt__7J3DNodeFv
 0001:802DFA78       appendChild__7J3DNodeFP7J3DNode
 0001:802DFF20       calcNBTScale__8J3DShapeFRC3VecPA3_A3_fPA3_A3_f
 0001:802DFF98       countBumpMtxNum__8J3DShapeCFv
 0001:802E02AC       makeVcdVatCmd__8J3DShapeFv
 0001:802E07E0       loadNrmMtxIndx__6J3DSysCFiUs
 0001:802E0808       setTexCacheRegion__6J3DSysF15_GXTexCacheSize
 0001:802E09C8       drawInit__6J3DSysFv
 0001:802E1094       reinitTexture__6J3DSysFv
 0001:802E1160       init__12J3DFrameCtrlFs
 0001:802E1190       checkPass__12J3DFrameCtrlFf
 0001:802E1730       update__12J3DFrameCtrlFv
 0001:802E1B6C       __ct__10J3DAnmBaseFv
 0001:802E1B8C       __ct__10J3DAnmBases
 0001:802E1BA8       __dt__10J3DAnmBaseFv
 0001:802E3C58       getTexNo__16J3DAnmTexPatternCFUsPUs
 0001:802E3D44       searchUpdateMaterialID__16J3DAnmTexPatternP12J3DModelData
 0001:802E3DD4       searchUpdateMaterialID__19J3DAnmTextureSRTKeyP12J3DModelData
 0001:802E4FD8       JSUConvertOffsetToPtr<Us>__FPCvPCv
 0001:802E4FF0       JSUConvertOffsetToPtr<f>__FPCvPCv
 0001:802E5008       JSUConvertOffsetToPtr<7ResNTAB>__FPCvPCv
 0001:802E5078       create__15J3DJointFactoryFi
 0001:802E6E88       JSUConvertOffsetToPtr<Uc>__FPCvPCv
 0001:802E6F00       load__22J3DModelLoaderDataBaseFPCvUl
 0001:802E7024       __dt__18J3DModelLoader_v26Fv
 0001:802E7128       loadMaterialTable__22J3DModelLoaderDataBaseFPCv
 0001:802E7248       load__14J3DModelLoaderPCvUl
 0001:802E7474       loadMaterialTable__14J3DModelLoaderFPCv
 0001:802E770C       readInformation__14J3DModelLoaderPC17J3DModelInfoBlockUl
 0001:802E78D0       readVertex__14J3DModelLoaderPC14J3DVertexBlock
 0001:802E7ACC       readEnvelop__14J3DModelLoaderPC15J3DEnvelopBlock
 0001:802E7B5C       readDraw__14J3DModelLoaderPC12J3DDrawBlock
 0001:802E7BF0       readJoint__14J3DModelLoaderPC13J3DJointBlock
 0001:802E7F78       __ct__11J3DMaterialFv
 0001:802E7FA8       readMaterial_v21__18J3DModelLoader_v21FPC20J3DMaterialBlock_v21Ul
 0001:802E8200       readShape__14J3DModelLoaderPC13J3DShapeBlockUl
 0001:802E8348       readTexture__14J3DModelLoaderPC15J3DTextureBlock
 0001:802E8688       readTextureTable__14J3DModelLoaderFPC15J3DTextureBlock
 0001:802E8740       __dt__10J3DTextureFv
 0001:802E87A4       JSUConvertOffsetToPtr<A3_A4_f>__FPCvPCv
 0001:802E87BC       JSUConvertOffsetToPtr<v>__FPCvPCv
 0001:802E87D4       JSUConvertOffsetToPtr<17_GXVtxAttrFmtList>__FPCvPCv
 0001:802E87EC       JSUConvertOffsetToPtr<17J3DModelHierarchy>__FPCvPCv
 0001:802E8CA4       load__20J3DAnmLoaderDataBasePCv
 0001:802E9524       __ct__19J3DAnmKeyLoader_v15
 0001:802E9844       readAnmTexPattern__20J3DAnmFullLoader_v15PC24J3DAnmTexPatternFullData
 0001:802EA434       __dt__16J3DAnmTexPatternFv
 0001:802EA698       __ct__Q27JGadget18TList_pointer_voidRCQ27JGadget14TAllocator<Pv>
 0001:802EA724       __dt__Q27JGadget18TList_pointer_voidFv
 0001:802EA800       insert__Q27JGadget18TList_pointer_voidFQ37JGadget36TList<Pv,Q27JGadget14TAllocator<Pv>>8iteratorRCP
 0001:802EA8FC       loadToMainRAM__12JKRDvdRipperFPCcPUc15JKRExpandSwitchUlP7JKRHeapQ212JKRDvdRipper15EAllocDirectionUlPi
 0001:802EAA54       loadToMainRAM__12JKRDvdRipperFP10JKRDvdFilePUc15JKRExpandSwitchUlP7JKRHeapQ212JKRDvdRipper15EAllocDirectionUlPi
 0001:802EB460       __ct__14J2DGrafContextFRC7JUTRect
 0001:802EB51C       __ct__14J2DGrafContextFiiii
 0001:802EB5F0       setPort__14J2DGrafContextFv
 0001:802EB6BC       setup2D__14J2DGrafContextFv
 0001:802EB868       setScissor__14J2DGrafContextFv
 0001:802EB920       scissor__14J2DGrafContextFRC7JUTRect
 0001:802EB944       place__14J2DGrafContextFRC7JUTRect
 0001:802EBB4C       place__14J2DGrafContextFiiii
 0001:802EBB9C       setLookat__14J2DGrafContextFv
 0001:802ECFCC       __ct__13J2DOrthoGraphFRC7JUTRect
 0001:802ED274       scissorBounds__13J2DOrthoGraphFP7JUTRectP7JUTRect
 0001:802ED614       __ct__13J3DVertexDataFv
 0001:802ED660       __dt__13J3DVertexData
 0001:802ED6A0       __ct__15J3DVertexBufferFP13J3DVertexData
 0001:802ED70C       __dt__15J3DVertexBufferFv
 0001:802ED758       copyTransformedVtxArray__15J3DVertexBufferFv
 0001:802ED828       __ct__14J3DDrawMtxDataFv
 0001:802ED83C       __dt__14J3DDrawMtxData
 0001:802ED87C       newDisplayList__17J3DDisplayListObjFUl
 0001:802EDB58       __ct__12J3DMatPacketFv
 0001:802EDC18       addShapePacket__12J3DMatPacketFP14J3DShapePacket
 0001:802EE144       def_802EE024
 0001:802EE4AC       nullsub_26
 0001:802EED4C       nullsub_27
 0001:802EF5C4       __ct__13J3DDrawBufferUl
 0001:802EF66C       frameInit__13J3DDrawBuffer
 0001:802EFA94       entryImm__13J3DDrawBufferFP9J3DPacketUs
 0001:802EFAB4       draw__13J3DDrawBufferC
 0001:802EFCEC       calc__11J3DTexNoAnmCFPUs
 0001:802EFD1C       initialize__14J3DMaterialAnmFv
 0001:802EFF80       __dt__14J3DMaterialAnmFv
 0001:802EFFCC       __ct__Q27JGadget20TVector_pointer_voidFRCQ27JGadget14TAllocator<Pv>
 0001:802EFFF8       DestroyElement___Q27JGadget38TVector<Pv,Q27JGadget14TAllocator<Pv>>FPPvPPv
 0001:802F000C       copy__Q23std14__copy<Pv,1,0>FPPvPPvPPv
 0001:802F00A0       InsertRaw__Q27JGadget38TVector<Pv,Q27JGadget14TAllocator<Pv>>FPPvUl
 0001:802F0504       reserve__Q27JGadget20TVector_pointer_voidFUl
 0001:802F05DC       __ct__12JKRAramBlockFUlUlUlUcb
 0001:802F11A8       setTransBuffer__13JKRAramStreamPUcUlP7JKRHeap
 0001:802F1208       flushMessage__12JUTAssertionFv
 0001:802F1300       __ct__10JUTResFontFPC7ResFONTP10JKRArchive
 0001:802F137C       __dt__10JUTResFontFv
 0001:802F1418       initiate__10JUTResFontFPC7ResFONTP10JKRArchive
 0001:802F14A4       protected_initiate__10JUTResFontFPC7ResFONT
 0001:802F1554       countBlock__10JUTResFontFv
 0001:802F164C       setBlock__10JUTResFontFv
 0001:802F178C       setGX__10JUTResFontFv
 0001:802F1864       setGX__10JUTResFontFQ28JUtility6TColorQ28JUtility6TColor
 0001:802F1B00       drawChar_scale__10JUTResFontFffffib
 0001:802F1F10       getDescent__10JUTResFontCFv
 0001:802F1F1C       getHeight__10JUTResFontCFv
 0001:802F1F78       getAscent__10JUTResFontCFv
 0001:802F1F84       loadFont__10JUTResFontFi11_GXTexMapIDPQ27JUTFont6TWidth
 0001:802F2084       getWidthEntry__10JUTResFontCFiPQ27JUTFont6TWidth
 0001:802F2120       isLeadByte__10JUTResFontCFi
 0001:802F2150       getFontCode__10JUTResFontCFi
 0001:802F22D0       getFontType__10JUTResFontCFv
 0001:802F22DC       loadImage__10JUTResFontFi11_GXTexMapID
 0001:802F2450       convertSjis__10JUTResFontCFiPUs
 0001:802F2480       getLeading__10JUTResFontCFv
 0001:802F248C       __ct__10JUTRomFontP7JKRHeap
 0001:802F39A0       def_802F38E8
 0001:802F5724       __ct__10JUTConsoleFUiUib
 0001:802F66DC       JUTReportConsole
 0001:802F6DD0       load__Q26JDrama6TActorFR20JSUMemoryInputStream
 0001:802F6F24       perform__Q26JDrama6TActorFUlPQ26JDrama9TGraphics
 0001:802F6F68       __dt__Q26JDrama6TActorFv
 0001:802F7004       JSGGetTranslation__Q26JDrama6TActorCFP3Vec
 0001:802F7020       JSGSetTranslation__Q26JDrama6TActorFRC3Vec
 0001:802F703C       JSGGetScaling__Q26JDrama6TActorCFP3Vec
 0001:802F7058       JSGSetScaling__Q26JDrama6TActorFRC3Vec
 0001:802F7074       JSGGetRotation__Q26JDrama6TActorCFP3Vec
 0001:802F7090       JSGSetRotation__Q26JDrama6TActorFRC3Vec
 0001:802F70B4       __dt__Q26JDrama7TCameraFv
 0001:802F7150       JSGGetFlag__Q26JDrama7TCameraCFv
 0001:802F7158       JSGSetFlag__Q26JDrama7TCameraFUl
 0001:802F7160       JSGGetProjectionNear__Q26JDrama7TCameraCFv
 0001:802F7168       JSGSetProjectionNear__Q26JDrama7TCameraFf
 0001:802F7170       JSGGetProjectionFar__Q26JDrama7TCameraCFv
 0001:802F7178       JSGSetProjectionFar__Q26JDrama7TCameraFf
 0001:802F7180       load__Q26JDrama12TPolarCameraFR20JSUMemoryInputStream
 0001:802F7644       JSGGetProjectionAspect__Q26JDrama12TPolarCameraCFv
 0001:802F764C       JSGSetProjectionAspect__Q26JDrama12TPolarCameraFf
 0001:802F7654       perform__Q26JDrama13TLookAtCameraFUlPQ26JDrama9TGraphics
 0001:802F76F8       JSGGetProjectionType__Q26JDrama13TLookAtCameraCFv
 0001:802F7700       JSGSetProjectionType__Q26JDrama13TLookAtCameraFQ26JStage18TECameraProjection
 0001:802F7704       JSGGetProjectionFovy__Q26JDrama13TLookAtCameraCFv
 0001:802F770C       JSGSetProjectionFovy__Q26JDrama13TLookAtCameraFf
 0001:802F7714       JSGGetProjectionAspect__Q26JDrama13TLookAtCameraCFv
 0001:802F771C       JSGSetProjectionAspect__Q26JDrama13TLookAtCameraFf
 0001:802F7724       JSGGetViewPosition__Q26JDrama13TLookAtCameraCFP3Vec
 0001:802F7740       JSGSetViewPosition__Q26JDrama13TLookAtCameraFRC3Vec
 0001:802F775C       JSGGetViewUpVector__Q26JDrama13TLookAtCameraCFP3Vec
 0001:802F7778       JSGSetViewUpVector__Q26JDrama13TLookAtCameraFRC3Vec
 0001:802F7794       JSGGetViewTargetPosition__Q26JDrama13TLookAtCameraCFP3Vec
 0001:802F77B0       JSGSetViewTargetPosition__Q26JDrama13TLookAtCameraFRC3Vec
 0001:802F79F8       __dt__Q26JDrama12TPolarCamera
 0001:802F7B1C       load__Q26JDrama10TSmplCharaFR20JSUMemoryInputStream
 0001:802F7B70       __dt__Q26JDrama10TSmplCharaFv
 0001:802F7C04       getRes__Q26JDrama10TSmplCharaCFPCc
 0001:802F7C34       mountArc__Q26JDrama10TSmplCharaFPCc
 0001:802F7C74       searchF__Q26JDrama9TDirectorFUsPCc
 0001:802F7D28       direct__Q26JDrama9TDirectorFv
 0001:802F7DF0       JSGFindObject__Q26JDrama9TDirectorCFPCcQ26JStage8TEObject
 0001:802F7EAC       __ct__Q26JDrama8TDisplayFUsPvPvRC16_GXRenderModeObj
 0001:802F7FD8       startRendering__Q26JDrama8TDisplayFv
 0001:802F80D0       endRendering__Q26JDrama8TDisplayFv
 0001:802F816C       __ct__Q26JDrama11TDrawBufObj
 0001:802F81E8       __ct__Q26JDrama11TDrawBufObjFUlUlPCc
 0001:802F8294       load__Q26JDrama11TDrawBufObjFR20JSUMemoryInputStream
 0001:802F830C       perform__Q26JDrama11TDrawBufObjFUlPQ26JDrama9TGraphics
 0001:802F83B0       __ct__Q26JDrama11TDStageDispFPCcQ26JDrama10TFlagT<Us>
 0001:802F8580       getEfbCtrlDisp__Q26JDrama11TDStageDispFv
 0001:802F884C       setSrcRect__Q26JDrama8TEfbCtrlFRCQ26JDrama5TRect
 0001:802F8A5C       __ct__Q26JDrama11TEfbCtrlTexPCcQ26JDrama10TFlagT<Us>
 0001:802F8B40       setTexAttb__Q26JDrama11TEfbCtrlTexFRC9_GXTexObj
 0001:802F8F8C       IssueGXPixelFormatSetting__6JDramaFRC16_GXRenderModeObjbb
 0001:802F917C       IssueGXCopyDisp__6JDramaFPvRCQ26JDrama5TRectRC16_GXRenderModeObjQ28JUtility6TColorUl10_GXFBClampUs
 0001:802F9534       setViewport__Q26JDrama9TGraphicsFRCQ26JDrama5TRectff
 0001:802F981C       JSGGetColor__Q26JDrama6TLightCFv
 0001:802F9848       JSGSetColor__Q26JDrama6TLightF8_GXColor
 0001:802F9878       load__Q26JDrama9TLightAryFR20JSUMemoryInputStream
 0001:802F9970       searchF__Q26JDrama9TLightAryFUsPCc
 0001:802F9A00       setLightNum__Q26JDrama9TLightAryl
 0001:802F9A98       __dt__Q26JDrama9TIdxLightFv
 0001:802F9DB4       load__Q26JDrama9TAmbColorFR20JSUMemoryInputStream
 0001:802F9E04       perform__Q26JDrama9TAmbColorFUlPQ26JDrama9TGraphics
 0001:802F9FE8       setAmbNum__Q26JDrama7TAmbAryl
 0001:802FA054       __dt__Q26JDrama9TAmbColorFv
 0001:802FA0E0       __ct__Q26JDrama9TAmbColorFv
 0001:802FA4D8       calcKeyCode__Q26JDrama8TNameRefFPCc
 0001:802FA504       getType__Q26JDrama8TNameRefFR20JSUMemoryInputStreamR20JSUMemoryInputStream
 0001:802FA598       genObject__Q26JDrama8TNameRefFR20JSUMemoryInputStreamR20JSUMemoryInputStream
 0001:802FA648       __dt__Q26JDrama8TNameRefFv
 0001:802FA694       getType__Q26JDrama8TNameRefCFv
 0001:802FA69C       load__Q26JDrama8TNameRefFR20JSUMemoryInputStream
 0001:802FA6F4       save__Q26JDrama8TNameRefFR21JSUMemoryOutputStream
 0001:802FA6F8       loadAfter__Q26JDrama8TNameRefFv
 0001:802FA6FC       searchF__Q26JDrama8TNameRefFUsPCc
 0001:802FA7AC       searchF__Q26JDrama55TNameRefPtrListT<Q26JDrama8TNameRef,Q26JDrama8TNameRef>FUsPCc
 0001:802FA894       loadAfter__Q26JDrama55TNameRefPtrListT<Q26JDrama8TNameRef,Q26JDrama8TNameRef>Fv
 0001:802FA940       load__Q26JDrama55TNameRefPtrListT<Q26JDrama8TNameRef,Q26JDrama8TNameRef>FR20JSUMemoryInputStream
 0001:802FAE20       load__Q26JDrama11TNameRefGenFR20JSUMemoryInputStream
 0001:802FAF0C       getNameRef__Q26JDrama11TNameRefGenCPCc
 0001:802FB554       __ct__Q26JDrama6TLightPCc
 0001:802FB64C       set<f>__Q29JGeometry8TVec3<f>Ffff
 0001:802FB65C       __ct__Q26JDrama7TCameraffPCc
 0001:802FB728       __dt__Q26JDrama55TNameRefPtrListT<Q26JDrama8TNameRef,Q26JDrama8TNameRef>Fv
 0001:802FB7A0       load__Q26JDrama10TPlacementFR20JSUMemoryInputStream
 0001:802FB808        IsEqualRenderModeVIParams__6JDramaFRC16_GXRenderModeObjRC16_GXRenderModeObj
 0001:802FB9E8       CalcRenderModeXFBHeight__6JDramaFP16_GXRenderModeObjUs
 0001:802FBAC8       CalcRenderModeVIXOrigin__6JDramaFP16_GXRenderModeObj
 0001:802FBB0C       CalcRenderModeVIYOrigin__6JDramaFP16_GXRenderModeObj
 0001:802FBB50       CopyRenderModeSamplePattern__6JDramaFP16_GXRenderModeObjPA2_CUc
 0001:802FBB78       CopyRenderModeVFilter__6JDramaFP16_GXRenderModeObjPCUc
 0001:802FBBA0       GetVIWidthMax__6JDramaFv
 0001:802FBC04       GetVIHeightMax__6JDramaFv
 0001:802FBD04       __ct__Q26JDrama7TScreenFRCQ26JDrama5TRectPCc
 0001:802FBDDC       assignCamera__Q26JDrama7TScreenFPQ26JDrama8TViewObj
 0001:802FBDE8       assignViewObj__Q26JDrama7TScreenFPQ26JDrama8TViewObj
 0001:802FC540       __ct__Q26JDrama9TSmJ3DScnPCcl
 0001:802FC80C       __dt__Q26JDrama9TSmJ3DScnFv
 0001:802FC8A8       __ct__Q26JDrama6TVideoFv
 0001:802FC99C       setNextXFB__Q26JDrama6TVideoFPCv
 0001:802FC9A4       waitForRetrace__Q26JDrama6TVideoFUs
 0001:802FCB5C       __ct__Q26JDrama14TViewConnecterFPQ26JDrama8TViewObjPQ26JDrama8TViewObjQ26JDrama10TFlagT<Us>PCc
 0001:802FCC94       testPerform__Q26JDrama8TViewObjFUlPQ26JDrama9TGraphics
 0001:802FCCFC       __ct__Q26JDrama9TViewportRCQ26JDrama5TRectPCc
 0001:802FCD8C       perform__Q26JDrama9TViewportFUlPQ26JDrama9TGraphics
 0001:802FD184       getRandom_0_1__7JALCalcFv
 0001:802FD1F8       getDist__7JALCalcFP3VecP3Vec
 0001:802FD344       init__9JALSystemFv
 0001:802FFF9C       __ct__13JAIAnimeSoundFv
 0001:80300010       initActorAnimSound__13JAIAnimeSoundFPvUlf
 0001:80300804       startAnimSound__13JAIAnimeSoundFPvUlPP8JAISoundP8JAIActorUc
 0001:80300838       setSpeedModifySound__13JAIAnimeSoundP8JAISoundP22JAIAnimeFrameSoundDataf
 0001:80300978       stop__13JAIAnimeSoundFv
 0001:803009E0       __ct__8JAIBasicFv
 0001:80300D18       initStream__8JAIBasicFv
 0001:80300D50       setRegisterTrackCallback__8JAIBasicFv
 0001:803013A4       def_80300FF8
 0001:80301884       loadGroupWave__8JAIBasicFll
 0001:80301C1C       startFrameInterfaceWork__8JAIBasicFv
 0001:80301DA4       checkStream__8JAIBasicFv
 0001:80301E80       startSoundActor__8JAIBasicFUlPP8JAISoundP8JAIActorUlUc
 0001:80301F14       startSoundActorReturnHandle__8JAIBasicFUlP8JAIActorUlUc
 0001:80301FC4       startSoundDirectID__8JAIBasicFUlPP8JAISoundP8JAIActorUlUc
 0001:80302414       changeIDToCategory__8JAIBasicFUl
 0001:8030288C       getMapInfoFxline__8JAIBasicFUl
 0001:803028A4       getMapInfoGround__8JAIBasicFUl
 0001:803028BC       getMapInfoFxParameter__8JAIBasicFUl
 0001:80302BB0       getSoundInfoFromID__8JAIBasicFUl
 0001:80302BEC       getSoundSwBit__8JAIBasicFPv
 0001:80302BF4       setSeExtParameter__8JAIBasicFP8JAISound
 0001:80302E70       makeSound__8JAIBasicFUl
 0001:80303E54       getInfoPointer__7JAIDataFUlPPv
 0001:80305204       checkNextFrameSe__8JAIBasicFv
 0001:80305958       sendPlayingSeCommand__8JAIBasicFv
 0001:80305EDC       setSeqMuteFromSeStart__8JAIBasicFP8JAISound
 0001:803060E8       sendSeAllParameter__8JAIBasicFP8JAISound
 0001:80308B04       init__Q27JAInter9StreamLibFb
 0001:803094C0       setPauseFlag__Q27JAInter9StreamLibFUc
 0001:803094D4       clearPauseFlag__Q27JAInter9StreamLibFUc
 0001:8030A230       setParamSeqPlayTrackMax__18JAIGlobalParameterFUl
 0001:8030A240       setParamSeqControlBufferMax__18JAIGlobalParameterFUl
 0001:8030A248       setParamAutoHeapMax__18JAIGlobalParameterFUl
 0001:8030A250       setParamStayHeapMax__18JAIGlobalParameterFUl
 0001:8030A280       setParamStreamInsideBufferCut__18JAIGlobalParameterFb
 0001:8030A294       setParamAutoHeapRoomSize__18JAIGlobalParameterFUl
 0001:8030A29C       setParamStayHeapSize__18JAIGlobalParameterFUl
 0001:8030A2A4       setParamInitDataFileName__18JAIGlobalParameterFPc
 0001:8030A2AC       setParamWavePath__18JAIGlobalParameterFPc
 0001:8030A2B4       setParamSequenceArchivesPath__18JAIGlobalParameterFPc
 0001:8030A2BC       setParamStreamPath__18JAIGlobalParameterFPc
 0001:8030A2C4       setParamSystemTrackMax__18JAIGlobalParameterFl
 0001:8030A2CC       setParamSystemRootTrackMax__18JAIGlobalParameterFl
 0001:8030A2D4       setParamSoundOutputMode__18JAIGlobalParameterFUl
 0001:8030A388       __ct__8JAISoundFv
 0001:8030A3B0       initMoveParameter__8JAISoundFP14JAIMoveParaSetfUl
 0001:8030A460       getSeCategoryNumber__8JAISoundFv
 0001:8030A48C       getSwBit__8JAISoundFv
 0001:8030A4B8       checkSwBit__8JAISoundFUl
 0001:8030A4F4       getInfoPriority__8JAISoundFv
 0001:8030A520       clearMainSoundPPointer__8JAISoundFv
 0001:8030A538       release__8JAISoundFv
 0001:8030A54C       stop__8JAISoundFUl
 0001:8030A57C       setVolume__8JAISoundFfUlUc
 0001:8030A604       setPan__8JAISoundFfUlUc
 0001:8030A68C       setPitch__8JAISoundFfUlUc
 0001:8030A714       setFxmix__8JAISoundFfUlUc
 0001:8030A78C       setDolby__8JAISoundFfUlUc
 0001:8030A804       setTempoProportion__8JAISoundFfUl
 0001:8030A85C       setPortData__8JAISoundFUcUs
 0001:8030A8C0       setDistanceVolumeCommon__8JAISoundFfUc
 0001:8030AA14       setDistancePanCommon__8JAISoundFv
 0001:8030AB68       setPositionDopplarCommon__8JAISoundFUl
 0001:8030AD44       setSeqInterVolume__8JAISoundFUcfUl
 0001:8030AE44       setSeqInterPan__8JAISoundFUcfUl
 0001:8030AF44       setSeqInterPitch__8JAISoundFUcfUl
 0001:8030B044       setSeqInterFxmix__8JAISoundFUcfUl
 0001:8030B144       setSeqInterDolby__8JAISoundFUcfUl
 0001:8030B280       setSeqTempoProportion__8JAISoundFfUl
 0001:8030B330       setSeqPortData__8JAISoundFUcUsUl
 0001:8030B49C       setWaveReadMode__8JAISoundFll
 0001:8030B53C       setTrackInterruptSwitch__8JAISoundFUcUc
 0001:8030B5E0       setTrackPortData__8JAISoundFUcUcUs
 0001:8030B700       setSeInterVolume__8JAISoundFUcfUlUc
 0001:8030BA90       setSeInterFxmix__8JAISoundFUcfUlUc
 0001:8030BC58       setSeInterDolby__8JAISoundFUcfUlUc
 0001:8030BE20       setSeInterPitch__8JAISoundFUcfUlf
 0001:8030BFDC       setSePortData__8JAISoundFUcUs
 0001:8030C15C       setSeDistanceParameters__8JAISoundFv
 0001:8030C2D0       setSeDistanceVolume__8JAISoundFUc
 0001:8030C3D0       setSeDistancePan__8JAISoundFUc
 0001:8030C498       setSeDistancePitch__8JAISoundFUc
 0001:8030C690       setSePositionDopplar__8JAISoundFv
 0001:8030C78C       setSeDistanceFxmix__8JAISoundFUc
 0001:8030C880       setSeDistanceFir__8JAISoundFUc
 0001:8030C884       setSeDistanceDolby__8JAISoundFUc
 0001:8030C950       setStreamInterVolume__8JAISoundFUcfUl
 0001:8030CA50       setStreamInterPitch__8JAISoundFUcfUl
 0001:8030CB50       bsetStreamInterPan__8JAISoundFUcfUl
 0001:8030CC50       setStreamInterPan__8JAISoundFUcfUl
 0001:8030D0E4       getSeqParameter__8JAISoundFv
 0001:8030D0EC       getSeParameter__8JAISoundFv
 0001:8030D0F4       getStreamParameter__8JAISoundFv
 0001:8030D0FC       getTrackPortRoute__8JAISoundFUcUc
 0001:8030D138       checkFileExsistence__18JAISystemInterfaceFPc
 0001:8030D17C       checkSeqActiveFlag__18JAISystemInterfaceFUl
 0001:8030D284       trackToSeqp__18JAISystemInterfaceFP8JAISoundUc
 0001:8030D970       readPortApp__18JAISystemInterfaceFUlUlPUs
 0001:80312078       def_80312048
 0001:803120D4       def_803120A4
 0001:80315E24       registerMixCallback__Q28JASystem6KernelFPFl_PsUc
 0001:803170B8       extendPath__Q28JASystem3DvdFPcPc
 0001:8031790C       checkPassDvdT__Q28JASystem3DvdFUlPUlPFUl_v
 0001:803184C4       def_803180F0
 0001:803194F4       nullsub_28
 0001:803194F8       nullsub_29
 0001:8031C13C       def_8031C0BC
 0001:8031C3D0       def_8031C348
 0001:8031D2C8       def_8031D100
 0001:8031D798       pauseTrackAll__Q28JASystem6TTrackFv
 0001:8031D7BC       unPauseTrackAll__Q28JASystem6TTrackFv
 0001:8031DCDC       handleToSeq__Q28JASystem8TrackMgrFUl
 0001:8031E244       __ct__Q25JMath13TRandom_fast_FUl
 0001:8031E340       __ct__22J3DMaterialFactory_v21FRC20J3DMaterialBlock_v21
 0001:8031E520       countUniqueMaterials__22J3DMaterialFactory_v21Fv
 0001:80321C08       clear__16J3DMaterialTableFv
 0001:80321C24       __ct__16J3DMaterialTableFv
 0001:80321C4C       __dt__16J3DMaterialTableFv
 0001:80321C98       JPAGetEmitterInfoPtr__Fv
 0001:80321CA4       __ct__14JPABaseEmitterFv
 0001:80321DBC       getFovy__14JPABaseEmitterFv
 0001:80321DCC       getAspect__14JPABaseEmitterFv
 0001:80321DDC       deleteAllParticle__14JPABaseEmitterFv
 0001:80321EB0       createChildParticle__14JPABaseEmitterFP15JPABaseParticle
 0001:80322464       addBaseVelVec__11JPAParticleFRCQ29JGeometry8TVec3<f>
 0001:80322498       setBaseVelVec__11JPAParticleFRCQ29JGeometry8TVec3<f>
 0001:803224B4       getEmitterGlobalTranslation__14JPABaseEmitterFRQ29JGeometry8TVec3<f>
 0001:8032259C       calcEmitterGlobalParams__14JPABaseEmitterFv
 0001:80322910       loadBaseEmitterBlock__14JPABaseEmitterFP12JPADataBlock
 0001:80322CD8       drawEmitterCallBack__14JPABaseEmitterFv
 0001:80322D14       createParticle__14JPABaseEmitterFv
 0001:803236E0       def_80322F58
 0001:80323FBC       calcCurrentRateTimerStep__14JPABaseEmitterFv
 0001:80324010       calcCreateParticle__14JPABaseEmitterFv
 0001:80324898       def_803247FC
 0001:80324A0C       setGlobalRTMatrix__14JPABaseEmitterFPA4_f
 0001:80324A3C       setGlobalSRTMatrix__14JPABaseEmitterFPA4_f
 0001:80324AD0       __ct__17JPAEmitterManagerFP18JPAResourceManagerlllP7JKRHeap
 0001:80325464       __ct__12JPABaseFieldFv
 0001:803254FC       __dt__12JPABaseFieldFv
 0001:80325564       set__12JPABaseFieldFv
 0001:80325568       checkMaxDistance__12JPABaseFieldFRQ29JGeometry8TVec3<f>RQ29JGeometry8TVec3<f>
 0001:803255C0       calcFieldFadeScale__12JPABaseFieldFf
 0001:803256E4       calcFieldVelocity__12JPABaseFieldFP11JPAParticle
 0001:80325854       affect__12JPABaseFieldFP11JPAParticle
 0001:80325874       loadFieldBlock__12JPABaseFieldFP12JPADataBlock
 0001:80325AD0       __ct__15JPAGravityFieldFv
 0001:80325B14       __dt__15JPAGravityFieldFv
 0001:80325B8C       set__15JPAGravityFieldFv
 0001:80325C28       __ct__11JPAAirFieldFv
 0001:80325C6C       set__11JPAAirFieldFv
 0001:80325DB4       affect__11JPAAirFieldFP11JPAParticle
 0001:80325FEC       getBaseVelVec__11JPAParticleCFRQ29JGeometry8TVec3<f>
 0001:8032604C       __dt__14JPAMagnetFieldFv
 0001:803260C4       set__14JPAMagnetFieldFv
 0001:8032613C       affect__14JPAMagnetFieldFP11JPAParticle
 0001:8032627C       __ct__14JPANewtonFieldFv
 0001:803262C0       __dt__14JPANewtonFieldFv
 0001:80326338       set__14JPANewtonFieldFv
 0001:803263BC       affect__14JPANewtonFieldFP11JPAParticle
 0001:803265B8       __ct__14JPAVortexFieldFv
 0001:80326610       __dt__14JPAVortexFieldFv
 0001:80326688       set__14JPAVortexFieldFv
 0001:803266E0       affect__14JPAVortexFieldFP11JPAParticle
 0001:80326848       checkMaxDistance__14JPAVortexFieldFRQ29JGeometry8TVec3<f>RQ29JGeometry8TVec3<f>
 0001:80326850       __ct__18JPAConvectionFieldFv
 0001:803268B4       __dt__18JPAConvectionFieldFv
 0001:8032692C       set__18JPAConvectionFieldFv
 0001:80326BE0       affect__18JPAConvectionFieldFP11JPAParticle
 0001:80326ED8       checkMaxDistance__18JPAConvectionFieldFRQ29JGeometry8TVec3<f>RQ29JGeometry8TVec3<f>
 0001:80326EE0       __ct__14JPARandomFieldFv
 0001:80326F24       __dt__14JPARandomFieldFv
 0001:80326F9C       affect__14JPARandomFieldFP11JPAParticle
 0001:803270DC       __ct__12JPADragFieldFv
 0001:80327120       __dt__12JPADragFieldFv
 0001:80327198       affect__12JPADragFieldFP11JPAParticle
 0001:803272B8       getDragForce__11JPAParticleCFv
 0001:803272C0       __ct__15JPAFieldManagerFv
 0001:803273F0       affectField__15JPAFieldManagerFP11JPAParticle
 0001:80327558       def_803274F8
 0001:803275E0       setAirField__15JPAFieldManagerFv
 0001:8032790C       __dt__11JPAAirFieldFv
 0001:803279AC       JPASqrtf__Ff
 0001:80327BE8       JPAGetXYRotateMtx__FssPA4_f
 0001:80327D1C       JPAGetYZRotateMtx__FssPA4_f
 0001:80327E50       JPAGetYRotateMtx__FsPA4_f
 0001:80327EE8       JPAVecToRotaMtx__FPA4_fQ29JGeometry8TVec3<f>Q29JGeometry8TVec3<f>
 0001:8032809C       JPAConvertFixToFloat__Fs
 0001:80328158       JPAConvertFixVecToFloatVec__FRQ29JGeometry8TVec3<f>RCQ29JGeometry8TVec3<s>
 0001:80328380       JPAGetRMtxSTVecElement__FPA4_fPA4_fRQ29JGeometry8TVec3<f>RQ29JGeometry8TVec3<f>
 0001:80328614       JPAGetRMtxTVecElement__FPA4_fPA4_fRQ29JGeometry8TVec3<f>
 0001:80328884       JPAGetKeyFrameValue__FfUsPf
 0001:803288A4       JPAGetKeyFrameInterpolation<f>__FfUsPf
 0001:80328954       incTimer__15JPABaseParticleFv
 0001:803289B4       executeParticleCallBack__15JPABaseParticleFP14JPABaseEmitter
 0001:803289F0       drawParticleCallBack__15JPABaseParticleFP14JPABaseEmitter
 0001:80328A2C       __ct__11JPAParticleFv
 0001:80328A78       init__11JPAParticleFv
 0001:80328AB8       setVelocity__11JPAParticleFv
 0001:80328B74       calcVelocity__11JPAParticleFv
 0001:80328C9C       initGlobalPosition__15JPABaseParticleFv
 0001:80328D04       calcGlobalPosition__15JPABaseParticleFv
 0001:80328D9C       getCurrentPosition__15JPABaseParticleFRQ29JGeometry8TVec3<f>
 0001:80328E28       checkCreateChildParticle__11JPAParticleFv
 0001:80328EEC       getDynamicsWeight__11JPAParticleCFv
 0001:80328EF4       getAirResistance__11JPAParticleCFv
 0001:80328EFC       getCurrentDragForce__11JPAParticleCFv
 0001:80328F04       accessBaseVelVec__11JPAParticleFv
 0001:80328F0C       accessFAccVec__11JPAParticleFv
 0001:80328F14       accessFVelVec__11JPAParticleFv
 0001:80328F1C       getDrawParamPPtr__11JPAParticleFv
 0001:80328F24       getDrawParamCPtr__11JPAParticleFv
 0001:80328F2C       getWidth__11JPAParticleFv
 0001:80328F4C       getHeight__11JPAParticleFv
 0001:80328F6C       setupTev__15JPADrawSetupTevFP12JPABaseShapeP13JPAExTexShape
 0001:803299B0       calcChild__7JPADrawFP15JPABaseParticle
 0001:80329A58       initParticle__7JPADrawFP15JPABaseParticle
 0001:80329DA8       initChild__7JPADrawFP15JPABaseParticleP15JPABaseParticle
 0001:8032A06C       swapImage__7JPADrawFPC7ResTIMGs
 0001:8032A0CC       setDrawExecVisitorsBeforeCB__7JPADrawFRCQ27JPADraw22JPADrawVisitorDefFlags
 0001:8032A774       setDrawExecVisitorsAfterCB__7JPADrawFRCQ27JPADraw22JPADrawVisitorDefFlags
 0001:8032AA5C       def_8032A7A4
 0001:8032AD74       setDrawCalcVisitors__7JPADrawFRCQ27JPADraw22JPADrawVisitorDefFlags
 0001:8032B650       setParticleClipBoard__7JPADrawFv
 0001:8032B9F0       setChildClipBoard__7JPADrawFv
 0001:8032BD10       drawParticle__7JPADrawFv
 0001:8032BF70       drawChild__7JPADrawFv
 0001:8032C214       zDraw__7JPADrawFv
 0001:8032C29C       zDrawParticle__7JPADrawFv
 0001:8032C4AC       zDrawChild__7JPADrawFv
 0001:8032C700       getMainTextureID__7JPADrawFUc
 0001:8032C740       loadYBBMtx__7JPADrawFPA4_f
 0001:80335338       __ct__12JPADataBlockFPCUcP7JKRHeap
 0001:803353B8       load__24JPAEmitterLoaderDataBaseFPCUcP7JKRHeapP18JPATextureResource
 0001:803364D0       __ct__18JPATextureResourceFUlP7JKRHeap
 0001:80336640       __ct__18JPAResourceManagerFUlUlP7JKRHeap
 0001:80336708       load__18JPAResourceManagerFPCcUs
 0001:80336754       load__18JPAResourceManagerFPCvUs
 0001:803367CC       __ct__13JPASweepShapeFPCUc
 0001:80336918       __dt__13JPASweepShapeFv
 0001:80336974       __ct__10JPATextureFPCUcP7JKRHeap
 0001:803369D4       initialize__17JPADefaultTextureFP7JKRHeap
 0001:80336EF4       __dt__Q26JStage13TAmbientLightFv
 0001:80336F58       JSGFGetType__Q26JStage13TAmbientLightCFv
 0001:80336F60       JSGGetColor__Q26JStage13TAmbientLightCFv
 0001:80336F78       JSGSetColor__Q26JStage13TAmbientLightF8_GXColor
 0001:80336F7C       __dt__Q26JStage7TCameraFv
 0001:80336FE0       JSGFGetType__Q26JStage7TCameraCFv
 0001:80336FE8       JSGGetProjectionType__Q26JStage7TCameraCFv
 0001:80336FF0       JSGSetProjectionType__Q26JStage7TCameraFQ26JStage18TECameraProjection
 0001:80336FF4       JSGGetProjectionNear__Q26JStage7TCameraCFv
 0001:80336FFC       JSGSetProjectionNear__Q26JStage7TCameraFf
 0001:80337000       JSGGetProjectionFar__Q26JStage7TCameraCFv
 0001:80337008       JSGSetProjectionFar__Q26JStage7TCameraFf
 0001:8033700C       JSGGetProjectionFovy__Q26JStage7TCameraCFv
 0001:80337014       JSGSetProjectionFovy__Q26JStage7TCameraFf
 0001:80337018       JSGGetProjectionAspect__Q26JStage7TCameraCFv
 0001:80337020       JSGSetProjectionAspect__Q26JStage7TCameraFf
 0001:80337024       JSGGetProjectionField__Q26JStage7TCameraCFPf
 0001:80337028       JSGSetProjectionField__Q26JStage7TCameraFPCf
 0001:8033702C       JSGGetViewType__Q26JStage7TCameraCFv
 0001:80337034       JSGSetViewType__Q26JStage7TCameraFQ26JStage12TECameraView
 0001:80337038       JSGGetViewPosition__Q26JStage7TCameraCFP3Vec
 0001:8033703C       JSGSetViewPosition__Q26JStage7TCameraFRC3Vec
 0001:80337040       JSGGetViewUpVector__Q26JStage7TCameraCFP3Vec
 0001:80337044       JSGSetViewUpVector__Q26JStage7TCameraFRC3Vec
 0001:80337048       JSGGetViewTargetPosition__Q26JStage7TCameraCFP3Vec
 0001:8033704C       JSGSetViewTargetPosition__Q26JStage7TCameraFRC3Vec
 0001:80337050       JSGGetViewRoll__Q26JStage7TCameraCFv
 0001:80337058       JSGSetViewRoll__Q26JStage7TCameraFf
 0001:8033705C       __dt__Q26JStage6TActorFv
 0001:803370C0       JSGFGetType__Q26JStage6TActorCFv
 0001:803370C8       JSGGetTranslation__Q26JStage6TActorCFP3Vec
 0001:803370CC       JSGSetTranslation__Q26JStage6TActorFRC3Vec
 0001:803370D0       JSGGetScaling__Q26JStage6TActorCFP3Vec
 0001:803370D4       JSGSetScaling__Q26JStage6TActorFRC3Vec
 0001:803370D8       JSGGetRotation__Q26JStage6TActorCFP3Vec
 0001:803370DC       JSGSetRotation__Q26JStage6TActorFRC3Vec
 0001:803370E0       JSGGetShape__Q26JStage6TActorCFv
 0001:803370E8       JSGSetShape__Q26JStage6TActorFUl
 0001:803370EC       JSGGetAnimation__Q26JStage6TActorCFv
 0001:803370F4       JSGSetAnimation__Q26JStage6TActorFUl
 0001:803370F8       JSGGetAnimationFrame__Q26JStage6TActorCFv
 0001:80337100       JSGSetAnimationFrame__Q26JStage6TActorFf
 0001:80337104       JSGGetAnimationFrameMax__Q26JStage6TActorCFv
 0001:8033710C       __dt__Q26JStage6TLightFv
 0001:803371C0       __dt__Q26JStage7TObjectFv
 0001:8033720C       JSGGetName__Q26JStage7TObjectCFv
 0001:80337214       JSGGetFlag__Q26JStage7TObjectCFv
 0001:8033721C       JSGSetFlag__Q26JStage7TObjectFUl
 0001:80337220       JSGGetData__Q26JStage7TObjectCFUlPvUl
 0001:80337228       JSGSetData__Q26JStage7TObjectFUlPCvUl
 0001:8033722C       JSGGetParent__Q26JStage7TObjectCFPPQ26JStage7TObjectPUl
 0001:80337230       JSGSetParent__Q26JStage7TObjectFPQ26JStage7TObjectUl
 0001:80337234       JSGSetRelation__Q26JStage7TObjectFbPQ26JStage7TObjectUl
 0001:80337238       __dt__Q26JStage7TSystemFv
 0001:8033729C       JSGFGetType__Q26JStage7TSystemCFv
 0001:803372A4       JSGFindObject__Q26JStage7TSystemCFPCcQ26JStage8TEObject
 0001:803372AC       JSGCreateObject__Q26JStage7TSystemFPCcQ26JStage8TEObjectUl
 0001:803372B4       JSGDestroyObject__Q26JStage7TSystemFPQ26JStage7TObject
 0001:803372B8       JSGGetSystemData__Q26JStage7TSystemFUl
 0001:803372C0       JSGSetSystemData__Q26JStage7TSystemFUlUl
 0001:80337800       DSPAddPriorTask__FP15STRUCT_DSP_TASK
 0001:80337880       __DSPHandler
 0001:80337BC0       DsyncFrame2__FUlUlUl
 0001:80337C60       Dsp_Update_Request__Fv
 0001:80337CA0       Dsp_Running_Check__Fv
 0001:80337CC0       Dsp_Running_Start__Fv
 0001:80337CCC       __va_arg
 0001:80337DC0       __destroy_global_chain
 0001:80337E08       __register_global_object
 0001:80337E20       __destroy_new_array
 0001:80337E9C       __destroy_arr
 0001:80337F14       __construct_array
 0001:80338014       __dt__26__partial_array_destructorFv
 0001:803380CC       __construct_new_array
 0001:803381D4       __ptmf_test
 0001:80338204       __ptmf_scall
 0001:8033822C       __unregister_fragment
 0001:80338260       __register_fragment
 0001:8033829C       __cvt_fp2unsigned
 0001:803382F8       __div2u
 0001:803383E4       __div2i
 0001:8033851C       __mod2u
 0001:80338600       __mod2i
 0001:8033870C       __shl2i
 0001:80338730       __shr2u
 0001:80338754       __shr2i
 0001:8033877C       __cvt_sll_flt
 0001:80338830       __cvt_dbl_usll
 0001:803388FC       GetR2__Fv
 0001:80338904       __fini_cpp_exceptions
 0001:80338938       __init_cpp_exceptions
 0001:80338A84       __num2dec
 0001:80338E38       __flush_buffer
 0001:80338F04       __prep_buffer
 0001:80338F38       __kill_critical_regions
 0001:80338F3C       toupper
 0001:80338F64       tolower
 0001:80338F8C       fwrite
 0001:80339268       wcstombs
 0001:803392A4       memcmp
 0001:803392E8       memchr
 0001:80339314       memmove
 0001:803393F0       __copy_longs_rev_unaligned
 0001:803394A0       __copy_longs_unaligned
 0001:80339564       __copy_longs_rev_aligned
 0001:80339610       __copy_longs_aligned
 0001:803396CC       __stdio_atexit
 0001:803396D0       sprintf
 0001:803397A4       snprintf
 0001:80339874       vsnprintf
 0001:803398E4       vprintf
 0001:80339960       __StringWrite
 0001:803399CC       __FileWrite
 0001:80339A24       __pformatter
 0001:8033A054       float2str
 0001:8033A68C       round_decimal
 0001:8033A7C0       longlong2str
 0001:8033A8C8       def_8033A854
 0001:8033AAA0       long2str
 0001:8033AB54       def_8033AB0C
 0001:8033ACC4       parse_format
 0001:8033ADC4       def_8033AD6C
 0001:8033B154       def_8033AFDC
 0001:8033B19C       srand
 0001:8033B1A4       rand
 0001:8033B1C8       __StringRead
 0001:8033B258       strstr
 0001:8033B2C4       strrchr
 0001:8033B30C       strchr
 0001:8033B33C       strcmp
 0001:8033B460       strcat
 0001:8033B48C       strncpy
 0001:8033B4D0       strcpy
 0001:8033B584       strlen
 0001:8033B5A4       strtol
 0001:8033B694       strtoul
 0001:8033B740       __strtoul
 0001:8033BA24       def_8033B804
 0001:8033BA88       __close_console
 0001:8033BA90       __write_console
 0001:8033BB28       __read_console
 0001:8033BC08       fwide
 0001:8033BC88       fabs__Fd
 0001:8033BC90       __ieee754_atan2
 0001:8033BF28       atan
 0001:8033C168       frexp
 0001:8033C204       atan2
 0001:8033C224       fabsf__Ff
 0001:8033C22C       atanf
 0001:8033C420       atan__Ff
 0001:8033C440       _inv_sqrtf
 0001:8033C4B0       acosf
 0001:8033C4F4       atan2f
 0001:8033C5CC       tanf
 0001:8033C610       cos__Ff
 0001:8033C630       sin__Ff
 0001:8033C650       cosf
 0001:8033C7E4       sinf
 0001:8033C988       __sinit_trigf_c
 0001:8033C9B8       powf
 0001:8033D0F8       expf
 0001:8033D1E0       TRKHandleRequestEvent
 0001:8033D87C       TRKGetBuffer
 0001:8033E170       nullsub_31
 0001:8033E188       TRKDispatchMessage
 0001:8033EA50       def_8033EA24
 0001:8033EC4C       def_8033EC20
 0001:803404B8       TRKInterruptHandler
 0001:80340798       TRKSwapAndGo
 0001:80340D9C       TRKTargetSetStopped
 0001:803410F4       InitMetroTRK
 0001:80341188       EnableMetroTRKInterrupts
 0001:80341250       __TRK_copy_vectors
 0001:8034189C       nullsub_32
 0001:803419C8       ReserveEXI2Port
 0001:803419F8       UnreserveEXI2Port
 0001:80341A4C       TRKTargetContinue
 0001:80341A80       PPCMfmsr
 0001:80341A88       PPCMtmsr
 0001:80341A90       PPCMfhid0
 0001:80341A98       PPCMthid0
 0001:80341AA0       PPCMfl2cr
 0001:80341AA8       PPCMtl2cr
 0001:80341AB0       PPCMtdec
 0001:80341AB8       PPCSync
 0001:80341AC0       PPCHalt
 0001:80341AD4       PPCMfhid2
 0001:80341ADC       PPCMthid2
 0001:80341AE4       PPCMtwpar
 0001:80341AEC       PPCDisableSpeculation
 0001:80341B14       PPCSetFpNonIEEEMode
 0001:80341B1C       DBInit
 0001:80341B44       __DBExceptionDestinationAux
 0001:80341B8C       __DBExceptionDestination
 0001:80341B9C       __DBIsExceptionMarked
 0001:80341BB8       DBPrintf
 0001:80341C08       OSGetConsoleType
 0001:80341D58       InquiryCallback
 0001:80341D94       OSInit
 0001:8034214C       OSExceptionInit
 0001:803423CC       __OSDBIntegrator
 0001:80342410       __OSGetExceptionHandler
 0001:80342424       OSExceptionVector
 0001:803424C0       OSDefaultExceptionHandler
 0001:80342518       __OSPSInit
 0001:80342564       OSInitAlarm
 0001:803425B0       OSCreateAlarm
 0001:803425BC       InsertAlarm
 0001:8034280C       OSSetAlarm
 0001:80342874       OSCancelAlarm
 0001:80342BC0       DecrementerExceptionHandler
 0001:80342E34       OSInitAlloc
 0001:80342EA4       OSCreateHeap
 0001:80342F24       OSCheckHeap
 0001:80343284       OSReferentSize
 0001:80343290       OSDumpHeap
 0001:80343394       OSGetArenaHi
 0001:8034339C       OSGetArenaLo
 0001:803433A4       OSSetArenaHi
 0001:803433AC       OSSetArenaLo
 0001:803433B4       __OSInitAudioSystem
 0001:8034365C       DCInvalidateRange
 0001:8034368C       DCFlushRange
 0001:803436C0       DCStoreRange
 0001:803436F4       DCFlushRangeNoSync
 0001:80343754       ICInvalidateRange
 0001:8034378C       ICFlashInvalidate
 0001:8034379C       ICEnable
 0001:803437B0       __LCEnable
 0001:8034387C       LCEnable
 0001:803438B4       LCDisable
 0001:80343A5C       DMAErrorHandler
 0001:80343BBC       __OSCacheInit
 0001:80343EFC       OSSetCurrentContext
 0001:80343FE4       OSLoadContext
 0001:803440BC       OSGetStackPointer
 0001:803440C4       OSClearContext
 0001:803440E8       OSInitContext
 0001:803441A4       OSDumpContext
 0001:8034444C       OSSwitchFPUContext
 0001:803444D0       __OSContextInit
 0001:80344518       OSFillFPUContext
 0001:80344644       OSReport
 0001:803446C4       OSPanic
 0001:8034480C       __OSUnhandledException
 0001:803449D8       def_8034492C
 0001:80344A0C       GetFontCode
 0001:80344D1C       OSGetFontEncode
 0001:803455C4       OSGetFontTexture
 0001:8034576C       OSGetFontWidth
 0001:803458AC       OSDisableInterrupts
 0001:803458C0       OSEnableInterrupts
 0001:803458D4       OSRestoreInterrupts
 0001:803458F8       __OSSetInterruptHandler
 0001:80345928       __OSInterruptInit
 0001:80345CFC       __OSUnmaskInterrupts
 0001:80346118       __OSModuleInit
 0001:80346130       OSInitMessageQueue
 0001:80346190       OSSendMessage
 0001:80346258       OSReceiveMessage
 0001:80346370       MEMIntrruptHandler
 0001:803463DC       OSProtectRange
 0001:803465B8       __OSInitMemoryProtection
 0001:803466D8       OSInitMutex
 0001:803469E0       OSInitCond
 0001:80346B40       __OSReboot
 0001:80346D00       OSRegisterResetFunction
 0001:80346E3C       OSResetSystem
 0001:803470B4       OSGetResetCode
 0001:803470E4       __OSResetSWInterruptHandler
 0001:80347608       __OSInitSram
 0001:803477F4       UnlockSram
 0001:80347C78       OSGetSoundMode
 0001:80347CF8       OSSetSoundMode
 0001:80347D9C       OSGetProgressiveMode
 0001:80347EB0       OSGetWirelessID
 0001:80347F34       OSSetWirelessID
 0001:80347FE0       OSInitStopwatch
 0001:8034800C       OSStartStopwatch
 0001:80348048       OSStopStopwatch
 0001:80348114       OSCheckStopwatch
 0001:80348184       OSResetStopwatch
 0001:803481AC       SystemCallVector
 0001:803481CC       __OSInitSystemCall
 0001:80348230       __OSThreadInit
 0001:80348358       OSInitThreadQueue
 0001:80348368       OSGetCurrentThread
 0001:80348374       OSIsThreadTerminated
 0001:803483A8       OSDisableScheduler
 0001:803483E8       OSEnableScheduler
 0001:80348428       UnsetRun
 0001:80348490       __OSGetEffectivePriority
 0001:803486DC       SelectThread
 0001:803488DC       __OSReschedule
 0001:8034890C       OSYieldThread
 0001:80348948       OSCreateThread
 0001:80348A68       OSExitThread
 0001:80348B4C       OSCancelThread
 0001:80348D08       OSJoinThread
 0001:80348E48       OSDetachThread
 0001:80348EE8       OSResumeThread
 0001:80349170       OSSuspendThread
 0001:803492E0       OSSleepThread
 0001:803493CC       OSWakeupThread
 0001:803494D0       OSGetThreadPriority
 0001:803494D8       OSGetTime
 0001:803494F0       OSGetTick
 0001:803494F8       __OSGetSystemTime
 0001:803498FC       __init_user
 0001:8034991C       __init_cpp
 0001:80349970       _ExitProcess
 0001:80349990       PSMTXIdentity
 0001:803499BC       PSMTXCopy
 0001:803499F0       PSMTXConcat
 0001:80349ABC       PSMTXInverse
 0001:80349BB4       PSMTXRotRad
 0001:80349C24       PSMTXRotTrig
 0001:80349DD0       PSMTXTrans
 0001:80349E44       PSMTXScale
 0001:80349F5C       C_MTXLookAt
 0001:8034A2D0       PSMTXMultVec
 0001:8034A3B0       PSMTXMultVecSR
 0001:8034A404       C_MTXPerspective
 0001:8034A4D4       C_MTXOrtho
 0001:8034A5D0       PSVECNormalize
 0001:8034A614       PSVECMag
 0001:8034A670       PSVECCrossProduct
 0001:8034A6D4       PSVECDistance
 0001:8034A720       __DVDInitWA
 0001:8034B574       __DVDFSInit
 0001:8034B5AC       DVDConvertPathToEntrynum
 0001:8034B8A0       DVDFastOpen
 0001:8034B914       DVDOpen
 0001:8034B9DC       DVDClose
 0001:8034BA00       entryToPath
 0001:8034BB60       DVDGetCurrentDir
 0001:8034BC24       DVDChangeDir
 0001:8034BC84       DVDReadAsyncPrio
 0001:8034BD44       cbForReadAsync
 0001:8034BD74       DVDReadPrio
 0001:8034BE8C       cbForReadSync
 0001:8034BEB0       DVDPrepareStreamAsync
 0001:8034BFCC       DVDInit
 0001:8034C0C8       stateReadingFST
 0001:8034C11C       cbForStateReadingFST
 0001:8034C19C       cbForStateError
 0001:8034D1A8       def_8034D064
 0001:8034D488       def_8034D214
 0001:8034DA6C       DVDReadAbsAsyncPrio
 0001:8034DC18       DVDReadDiskID
 0001:8034DDB0       DVDCancelStreamAsync
 0001:8034DE6C       DVDStopStreamAtEndAsync
 0001:8034DF28       DVDGetStreamPlayAddrAsync
 0001:8034DFE4       DVDInquiryAsync
 0001:8034E0B4       DVDReset
 0001:8034E0F8       DVDGetCommandBlockStatus
 0001:8034E144       DVDGetDriveStatus
 0001:8034E1F0       DVDSetAutoInvalidation
 0001:8034E200       DVDCancelAsync
 0001:8034E448       def_8034E24C
 0001:8034E470       DVDCancel
 0001:8034E51C       cbForCancelSync
 0001:8034E540       DVDGetCurrentDiskID
 0001:8034E548       DVDCheckDisk
 0001:8034E610       def_8034E5D4
 0001:8034E748       __DVDClearWaitingQueue
 0001:8034EAD8       cb
 0001:8034EBB0       __fstLoad
 0001:8034EF40       VISetPostRetraceCallback
 0001:8034EF84       getTiming
 0001:8034F00C       def_8034EFA8
 0001:8034F014       __VIInit
 0001:8034F20C       VIInit
 0001:8034F684       VIWaitForRetrace
 0001:8034F6D8       setFbbRegs
 0001:8034F9AC       setVerticalRegs
 0001:8034FB4C       VIConfigure
 0001:803502E8       VIFlush
 0001:80350404       VISetNextFrameBuffer
 0001:80350470       VISetBlack
 0001:803504EC       VIGetRetraceCount
 0001:803504F4       getCurrentFieldEvenOdd
 0001:8035055C       VIGetNextField
 0001:80350604       VIGetCurrentLine
 0001:8035069C       VIGetTvFormat
 0001:80350718       VIGetDTVStatus
 0001:80350754       ClampStick
 0001:80350884       PADClamp
 0001:8035098C       UpdateOrigin
 0001:80350B30       PADOriginCallback
 0001:803511EC       PADReset
 0001:803512EC       PADRecalibrate
 0001:803513F0       PADInit
 0001:80351600       PADRead
 0001:803519AC       PADControlMotor
 0001:80351A50       PADSetSpec
 0001:80352190       PADSetAnalogMode
 0001:803524C8       AIRegisterDMACallback
 0001:8035250C       AIInitDMA
 0001:80352594       AIStartDMA
 0001:803525AC       AIResetStreamSampleCount
 0001:803525C4       AISetStreamPlayState
 0001:8035269C       AIGetStreamPlayState
 0001:803526AC       AISetDSPSampleRate
 0001:8035278C       AIGetDSPSampleRate
 0001:803527A0       AISetStreamSampleRate
 0001:803527C8       __AI_set_stream_sample_rate
 0001:8035289C       AIGetStreamSampleRate
 0001:803528AC       AISetStreamVolLeft
 0001:803528C8       AIGetStreamVolLeft
 0001:803528D8       AISetStreamVolRight
 0001:803528F4       AIGetStreamVolRight
 0001:80352904       AIInit
 0001:80352A68       __AISHandler
 0001:80352AE4       __AIDHandler
 0001:80352B74       __AICallbackStackSwitch
 0001:80352BCC       __AI_SRC_INIT
 0001:80352DB0       ARRegisterDMACallback
 0001:80352DF4       ARStartDMA
 0001:80352EE4       ARAlloc
 0001:80352F4C       ARInit
 0001:80353008       ARGetBaseAddress
 0001:80353010       ARGetSize
 0001:80353018       __ARHandler
 0001:80353090       __ARChecksize
 0001:803539A4       __ARQServiceQueueLo
 0001:80353AA4       __ARQCallbackHack
 0001:80353AA8       __ARQInterruptServiceRoutine
 0001:80353B74       ARQInit
 0001:80353BDC       ARQPostRequest
 0001:80353D38       DSPCheckMailToDSP
 0001:80353D48       DSPCheckMailFromDSP
 0001:80353D58       DSPReadMailFromDSP
 0001:80353D70       DSPSendMailToDSP
 0001:80353D84       DSPAssertInt
 0001:80353DC4       DSPInit
 0001:80353E7C       __DSP_debug_printf
 0001:80354330       __CARDSyncCallback
 0001:80354CBC       __CARDStart
 0001:80354FA4       __CARDWritePage
 0001:803550C0       __CARDEraseSector
 0001:803551A0       CARDInit
 0001:8035523C       __CARDSetDiskID
 0001:80355274       __CARDGetControlBlock
 0001:8035532C       __CARDPutControlBlock
 0001:80355390       CARDFreeBlocks
 0001:803554E0       __CARDSync
 0001:80355578       OnReset
 0001:803555C8       bitrev
 0001:80355734       ReadArrayUnlock
 0001:80356968       BlockWriteCallback
 0001:80356A44       __CARDWrite
 0001:80356AA8       __CARDGetFatBlock
 0001:80356AB0       WriteCallback
 0001:80356E10       __CARDGetDirBlock
 0001:80358BB0       __CARDFormatRegionAsync
 0001:80359208       CARDFormat
 0001:8035935C       __CARDIsPublic
 0001:8035A664       GXInit
 0001:8035BFC8       GXSetVtxDesc
 0001:8035C2CC       def_8035BFE4
 0001:8035C640       def_8035C350
 0001:8035C9CC       def_8035C840
 0001:8035CA48       GXClearVtxDesc
 0001:8035CA94       GXSetVtxAttrFmt
 0001:8035CDBC       def_8035CACC
 0001:8035D128       def_8035CE3C
 0001:8035D438       def_8035D240
 0001:8035D4C4       GXSetArray
 0001:8035D550       GXInvalidateVtxCache
 0001:8035D560       GXSetTexCoordGen2
 0001:8035D614       def_8035D594
 0001:8035D7FC       def_8035D720
 0001:8035D830       GXSetNumTexGens
 0001:8035D878       GXSetMisc
 0001:8035D8F0       GXFlush
 0001:8035D94C       GXSetDrawSync
 0001:8035DAE8       GXDrawDone
 0001:8035DBA0       GXPokeAlphaRead
 0001:8035DCCC       GXPeekARGB
 0001:8035DD18       GXSetDrawSyncCallback
 0001:8035DF88       GXBegin
 0001:8035E210       GXSetCullMode
 0001:8035E260       GXSetCoPlanar
 0001:8035E5FC       GXSetDispCopyFrame2Field
 0001:8035E6A4       GXGetNumXfbLines
 0001:8035E734       GXGetYScaleFactor
 0001:8035ECD0       GXSetDispCopyGamma
 0001:8035F024       GXInitLightAttn
 0001:8035F214       GXInitLightColor
 0001:8035F3B4       GXSetChanAmbColor
 0001:8035F51C       GXSetChanMatColor
 0001:8035F684       GXSetNumChans
 0001:8035F6D0       GXSetChanCtrl
 0001:8035F900       def_8035F8D8
 0001:8035FA54       def_8035FA2C
 0001:8035FAD8       GXInitTexObj
 0001:8035FCE4       def_8035FC7C
 0001:8035FD94       GXInitTexObjLOD
 0001:80360160       GXLoadTexObj
 0001:80360A18       GXSetTevIndirect
 0001:80360AB4       GXSetIndTexMtx
 0001:80360C14       GXSetIndTexCoordScale
 0001:80360F20       GXSetNumIndStages
 0001:803610E8       GXSetTevOp
 0001:8036128C       GXSetTevColorIn
 0001:8036130C       GXSetTevAlphaIn
 0001:80361390       GXSetTevColorOp
 0001:80361450       GXSetTevAlphaOp
 0001:80361510       GXSetTevColor
 0001:80361584       GXSetTevColorS10
 0001:803615F8       GXSetTevKColor
 0001:80361744       GXSetTevSwapMode
 0001:8036179C       GXSetTevSwapModeTable
 0001:8036183C       GXSetAlphaCompare
 0001:80361910       GXSetTevOrder
 0001:80361AEC       GXSetNumTevStages
 0001:80361DD0       GXSetBlendMode
 0001:80361ED4       GXSetColorUpdate
 0001:80361F14       GXSetAlphaUpdate
 0001:80361F54       GXSetZMode
 0001:80361FCC       GXSetZCompLoc
 0001:8036211C       GXSetDither
 0001:8036215C       GXSetDstAlpha
 0001:803627FC       GXDrawCube
 0001:80362A4C       nullsub_6
 0001:80362A50       GXCallDisplayList
 0001:80362AC0       GXProject
 0001:80362C34       GXSetProjection
 0001:80362D08       GXGetProjectionv
 0001:80362E0C       GXLoadPosMtxImm
 0001:80362E78       GXLoadNrmMtxImm
 0001:80362EB8       GXLoadNrmMtxIndx3x3
 0001:80362EEC       GXSetCurrentMtx
 0001:80362F28       GXLoadTexMtxImm
 0001:80362FAC       GXSetViewportJitter
 0001:803630C8       GXSetViewport
 0001:803630EC       GXGetViewportv
 0001:80363138       GXSetScissor
 0001:8036322C       GXSetClipMode
 0001:8036381C       def_80363418
 0001:80363B60       def_80363848
 0001:803646F8       GDInitGDLObj
 0001:80364864       GDSetOverflowCallback
 0001:80364AD4       def_803648E0
 0001:80365078       def_80364F68
 0001:80368C0C       SIInit
 0001:80368F38       SISetCommand
 0001:80368FC8       SIEnablePolling
 0001:80369064       SIDisablePolling
 0001:803691A4       SIGetResponse
 0001:803696F8       SIGetType
 0001:803698BC       SIGetTypeAsync
 0001:80369E50       EXIImmEx
 0001:8036A874       EXIDeselect
 0001:8036AD2C       EXIInit
 0001:8036AF34       EXIUnlock
 0001:8036B644       THPVideoDecode
 0001:8036C428       __THPPrepBitStream
 0001:8036C674       __THPDecompressYUV
 0001:8036C780       __THPDecompressiMCURow512x448
 0001:8036E208       __THPDecompressiMCURow640x480
 0001:80372B0C       THPInit
 0001:80372B84       THPAudioDecode
 0001:80372FE8       __THPAudioGetNewSample
 0001:80373078       __THPAudioInitialize
 0001:803730C0       __init_cpp_exceptions_reference
 0001:80373480       __destroy_global_chain_reference
 0001:80373580       aFisha_bmd
 0001:8037358C       aFishb_bmd
 0001:80373598       aFishc_bmd
 0001:803735A4       aFishd_bmd
 0001:803735FC       aFish_swim
 0001:80373608       aGrgugggnbGi
 0001:80373618       aUggoglbGv
 0001:80373708       aKamome_high_bm
 0001:80373730       aAnimalMew_prm
 0001:803738E8       aSceneBirdBasBird_fly_bas
 0001:80373908       aSceneBirdBasBird_open_bas
 0001:80373928       aSceneBirdBasBird_start_bas
 0001:80373948       aSceneBirdBasBird_stop_bas
 0001:8037397C       a_mat_body1
 0001:803739A8       aBird_man_bmd
 0001:803739D0       aTGvgggcgugjgbg
 0001:803739E4       aAnimalBird_prm
 0001:803739F8       aMmarchspeed
 0001:80373A04       aMturnspeed
 0001:80373A10       aMreturntimer
 0001:80373A20       aMsearchlength
 0001:80373A30       aMsearchheight
 0001:80373A40       aMsearchaware
 0001:80373A50       aMsearchangle
 0001:80373A60       aMactiontimer
 0001:80373A70       aMwaterprooftim
 0001:80373A84       aMfloatingtimer
 0001:80373A98       aMlandinggravit
 0001:80373AAC       aMlandingtorque
 0001:80373ABC       aMwalkingtorque
 0001:80373ACC       aMwalkingspeed
 0001:80373ADC       aMwalktimer
 0001:80373AE8       aMlandingfric
 0001:80373AF8       aMactiontimerad
 0001:80373B08       aMwaterpowery
 0001:80373BF8       aBee_body_bmd
 0001:80373C08       aBee_nest_bmd
 0001:80373C18       aBee_nest_break
 0001:80373C5C       aBee_nest_bre_0
 0001:80373C6C       aAnimalBeehive_
 0001:80373C80       aMgiveuptimer
 0001:80373C90       aMgiveuprange
 0001:80373CA0       aMdecrimenttime
 0001:80373CB0       aMrebound
 0001:80373CBC       aManglemaxadd
 0001:80373CCC       aMshakepower
 0001:80373CD8       aMfallangularve
 0001:80373CE8       aMsearchrange
 0001:80373CF8       aUggoglbGv_0
 0001:80373DE8       aButterflya_bmd
 0001:80373DF8       aButterflyb_bmd
 0001:80373E08       aButterflyc_bmd
 0001:80373E74       aUggoglbGv_1
 0001:80374694       aMactormtxcalctype_userGjbGubTsl_4
 0001:803746B8       aSceneMapPollutionH_ma_rak_bti_2
 0001:803746DC       aH_ma_rak_dummy_3
 0001:803746EC       aCommonCameraCamera_demo_shine_get_inside
 0001:80374718       aCommonCameraCamera_demo_shine_get_outside
 0001:80374748       aCommonCameraCamera_demo_gate_in
 0001:8037476C       aKjongjgbgi
 0001:80374778       aKjonmugjgbgi
 0001:80374788       aPinna2_camera
 0001:80374798       aTinkoopa_camera
 0001:803747A8       aTinkoopa_killer_camera
 0001:803747C0       aSceneMapCameraStartcamera_bck
 0001:80374808       aGqgmgngkgGlbGw
 0001:80374820       aGqgmgngkvqgGlb
 0001:80374838       aGGxgpgbgngugGl
 0001:80374854       aGGxgqgbgB
 0001:80374948       aUggjgbgivTjrs
 0001:80374958       aUggjgbgivatjrs
 0001:80374968       aUggjgbgivbtjrs
 0001:80374978       aUggjgbgivctjrs
 0001:80374988       aUggjgbgivdtjrs
 0001:803756A0       aSceneSun
 0001:803756AC       aSceneSunset
 0001:803756BC       aSun_lensfx_bmd
 0001:8037576C       aSCzgpbGvgGcgugg
 0001:80375780       aSCzgvgfgl
 0001:803759C8       aCam_position
 0001:803759D8       aCam_interest
 0001:803759E8       aSceneMapCamera_0
 0001:803759FC       aCommonCamera_0
 0001:80375A2C       aCommonCamera_1
 0001:80375A60       aCommonCamera_2
 0001:80375A88       aCommonCameraCa
 0001:80375AC8       aNGtgcghgjgbgi
 0001:80375AD8       aSsogjgbgi
 0001:80375AE4       aSgjgbgi
 0001:80375B10       aCameraKindfoll
 0001:80375B28       aCameraKindpara
 0001:80375B44       aCameraKindmult
 0001:80375B60       aCameraKindwall
 0001:80375B7C       aCameraKindhipa
 0001:80375B98       aCameraKindrock
 0001:80375BB4       aCameraKindwire
 0001:80375BCC       aCameraKindlnor
 0001:80375BE4       aCameraKindmare
 0001:80375C04       aCameraKinddefi
 0001:80375C20       aCameraKindtalk
 0001:80375C38       aCameraKindlean
 0001:80375C54       aCameraKindta_0
 0001:80375C6C       aCameraKindunde
 0001:80375C88       aCameraKindindo
 0001:80375CA0       aCameraKindhang
 0001:80375CB8       aCameraKindwi_0
 0001:80375CD4       aCameraKindsand
 0001:80375CF0       aCameraKindhove
 0001:80375D0C       aCameraKindjump
 0001:80375D28       aCameraKinddelf
 0001:80375D40       aCameraKindclim
 0001:80375D58       aCameraKindfixa
 0001:80375D70       aCameraKindfixb
 0001:80375D88       aCameraKindfixc
 0001:80375DA0       aCameraKindfixd
 0001:80375DB8       aCameraKindfixe
 0001:80375DD0       aCameraKindfixf
 0001:80375DE8       aCameraKindfixg
 0001:80375E00       aCameraKindfixh
 0001:80375E18       aCameraKindde_0
 0001:80375E34       aCameraKindde_1
 0001:80375E50       aCameraKindde_2
 0001:80375E6C       aCameraKindde_3
 0001:80375E88       aCameraKindde_4
 0001:80375EA4       aCameraKindde_5
 0001:80375EC0       aCameraKindde_6
 0001:80375EDC       aCameraKindde_7
 0001:80375EF8       aCameraKindexma
 0001:80375F10       aCameraKindtowe
 0001:80375F28       aCameraKindto_0
 0001:80375F40       aCameraKindto_1
 0001:80375F58       aCameraKindslid
 0001:80375F70       aCameraKinddivi
 0001:80375F88       aCameraKindturb
 0001:80375FA0       aCameraKindta_1
 0001:80375FB8       aCameraKindjetc
 0001:80375FD4       aCameraKindpa_0
 0001:80375FF0       aCameraKindsurf
 0001:80376008       aCameraKindswim
 0001:80376024       aCameraKindcl_0
 0001:80376040       aCameraKindlook
 0001:8037605C       aCameraKindrail
 0001:80376078       aCameraKindfo_0
 0001:80376090       aCameraKindfo_1
 0001:803760A8       aCameraKindto_2
 0001:803760C0       aCameraKindde_8
 0001:803760E0       aCameraKindboss
 0001:803760FC       aCameraKindfixi
 0001:80376114       aCameraKindde_9
 0001:80376130       aCameraKindfenc
 0001:80376148       aCameraKindmont
 0001:80376164       aCameraKindmo_0
 0001:80376180       aCameraKindta_2
 0001:80376198       aCameraKindta_3
 0001:803761B0       aCameraKindto_3
 0001:803761C8       aCameraKindd_10
 0001:803761E4       aCameraKindcanc
 0001:803761FC       aCameraKindaqua
 0001:8037621C       aCameraKindfo_2
 0001:80376234       aCameraKindfo_3
 0001:8037624C       aCameraKindpa_1
 0001:80376268       aCameraKindpa_2
 0001:803762A8       aCameraShakehip
 0001:803762C4       aCameraShakewal
 0001:803762E0       aCameraShakedam
 0001:803762F8       aCameraShakeene
 0001:80376310       aCameraShakee_0
 0001:80376328       aCameraShakebui
 0001:80376348       aCameraShakekil
 0001:80376360       aCameraShaketam
 0001:8037637C       aCameraShakeboh
 0001:8037639C       aCameraShakeb_0
 0001:803763B8       aCameraShakeb_1
 0001:803763D4       aCameraShakeb_2
 0001:803763F0       aCameraShakeb_3
 0001:8037640C       aCameraShakesan
 0001:8037642C       aCameraShakebop
 0001:80376448       aCameraShakeb_4
 0001:80376464       aCameraShakeb_5
 0001:80376480       aCameraShakeb_6
 0001:803764A0       aCameraShakebog
 0001:803764C0       aCameraShakeb_7
 0001:803764DC       aCameraShakeb_8
 0001:803764F8       aCameraShakeb_9
 0001:80376514       aCameraShakebow
 0001:80376530       aCameraShake_10
 0001:8037654C       aCameraShakebee
 0001:80376568       aCameraShake_11
 0001:80376584       aCameraShake_12
 0001:803765A4       aCameraShake_13
 0001:803765C4       aCameraShake_14
 0001:803765E4       aCameraShake_15
 0001:80376604       aCameraShake_16
 0001:80376620       aCameraShakebte
 0001:80376640       aCameraShake_17
 0001:8037665C       aCameraShake_18
 0001:8037667C       aCameraShake_19
 0001:8037669C       aCameraShake_20
 0001:803766BC       aCameraShakecan
 0001:803766D8       aCameraShakebat
 0001:80376700       aCameraShake_21
 0001:80376728       aCameraShakekoo
 0001:80376748       aCameraShake_22
 0001:80376788       aMactormtxcalctype_basic
 0001:803767B8       aMactormtxcalctype_softimage_0
 0001:803767F0       aMactormtxcalctype_motionblend_0
 0001:80376824       aMactormtxcalctype_user_0
 0001:80376848       aGGxgpgugpgugGl
 0001:80376864       aGqgmgngkvqgG_0
 0001:8037687C       aGGxgqgbgBGGlbG
 0001:80376898       aGigbgngkgGlb_1
 0001:803768B0       aGigbgngkpomGgg
 0001:803768D0       aGrgug_gngB
 0001:803768E0       aConductor_prm
 0001:803768F0       aMenemyfarclip
 0001:80376900       aMgenerateradiu
 0001:80376914       aMgeneraterad_0
 0001:80376928       aMgeneratetime
 0001:80376938       aMgenerateprop
 0001:80376A28       a06_enem_tobiko
 0001:80376A40       a04_tobikomi_bm
 0001:80376A50       a08_sunabashira
 0001:80376A64       a10_bomb_bmd
 0001:80376A70       aGggtgfgnggfFn
 0001:80376A80       aSceneExplosion
 0001:80376AA8       aSceneExplosi_0
 0001:80376AD0       aSceneExplosi_1
 0001:80376AF8       aEnemyExplosion
 0001:80376B10       a08_sunabashi_0
 0001:80376B20       aGggtgfgnggnTm
 0001:80376B30       aSceneColumsand
 0001:80376B5C       aEnemySandcolum
 0001:80376B74       a04_tobikomi
 0001:80376B80       aGggtgfgnggfFnr
 0001:80376B94       aSceneBombcolum
 0001:80376BC4       aSceneBombcol_0
 0001:80376BF4       aSceneBombcol_1
 0001:80376C24       aEnemyBombwater
 0001:80376C40       a06_enem_tobi_0
 0001:80376C54       aGggtgfgnggretm
 0001:80376C64       aSceneColumwate
 0001:80376C8C       aSceneColumwa_0
 0001:80376CB4       aEnemyWatercolu
 0001:80376CCC       aEffectobjbase
 0001:80376CDC       aSceneMapMapMs_
 0001:80376D00       aSceneMapMapM_0
 0001:80376E4C       aGGkgigvghgl
 0001:80376E5C       aEnemyEmario_pr
 0001:80376E70       aKagemario_scro
 0001:80376E84       aH_kagemario_du
 0001:80376E98       aGGkgivqvo
 0001:80376EA4       aGGkgivrvo
 0001:80376EB0       aGGkgivsvo
 0001:80376EC0       aTspinebaseBrok
 0001:80376EE8       aTsharedparts
 0001:80376F18       aMactormtxcalctype_basicGngigvgbgngxgpbGlvnvm_5
 0001:80376F48       aMactormtxcalctype_softimageGngigvgbgngxgpbGlvnveve_6
 0001:80376F80       aMactormtxcalctype_motionblendGvbGvgzgugugmgugh_6
 0001:80376FB4       aMactormtxcalctype_userGjbGubTsl_7
 0001:80376FD8       aUggoglbGv_2
 0001:80376FE4       aMslheadheight
 0001:80376FF4       aMslbodyradius
 0001:80377004       aMslwallradius
 0001:80377014       aMslclipradius
 0001:80377024       aMslfarclip
 0001:80377030       aMslhitpointmax
 0001:80377040       aMslinstancenum
 0001:80377050       aMslactiveenemy
 0001:8037781C       aSceneMapMapPadMonteman_model_bmd
 0001:80377844       aGngagngkgGlbGw
 0001:8037785C       aStamp_koopa_si
 0001:80377874       aSceneKagemario
 0001:8037789C       aSceneKagemar_0
 0001:803778C0       aSceneKagemar_1
 0001:80377900       aSceneKagemar_2
 0001:80377928       aSceneKagemar_3
 0001:80377950       aSceneKagemar_4
 0001:80377978       a__MapPadSettin
 0001:80377990       aMsearchdist
 0001:8037799C       aMsearchheigh_0
 0001:803779AC       aMwaterctmax
 0001:803779B8       aMstopflag
 0001:803779C4       aMstampflag
 0001:803779D0       aMrandomflag
 0001:803779DC       aMcarryflag
 0001:803779E8       aMinvinciblefla
 0001:803779F8       aMrandompow
 0001:80377A04       aMdowntime
 0001:80377A10       aMpolluteflag
 0001:80377A20       aMpollutesize
 0001:80377A30       a__MapPad2Setti
 0001:80377A4C       a__MapPad3Setti
 0001:80377A68       aSceneMapMapPad
 0001:80377A88       aSceneMapMapP_0
 0001:80377AAC       aMariomodokiD
 0001:80377ABC       aSceneMapMapP_1
 0001:80377AE0       aSceneMapMapP_2
 0001:80377B04       aSceneMapMapP_3
 0001:80377B28       aGGkgivqvo_0
 0001:80377B34       aGGkgivrvo_0
 0001:80377B40       aGGkgivsvo_0
 0001:80377B4C       aChn_chest
 0001:80377B58       aJnt_chest
 0001:80377B64       aJnt_arm_r1
 0001:80377B70       aJnt_arm_l1
 0001:80377B7C       aJnt_hand_r
 0001:80377B88       aJnt_hand_l
 0001:80377B94       aChn_foot_r
 0001:80377BA0       aJnt_foot_r
 0001:80377BAC       aChn_foot_l
 0001:80377BB8       aJnt_foot_l
 0001:80377BC4       aJnt_head
 0001:80377BD0       aMarioBasMa_S_b
 0001:80377BE8       aMarioDamagewat
 0001:80377C04       aMarioWetwatere
 0001:80377C1C       aGGkgigggtgfgng
 0001:80377F80       aGeso_model1_bm
 0001:80377F90       aGero_run_loop1
 0001:80377FA0       aGero_run1
 0001:80377FAC       aUggoglbGv_3
 0001:80377FC8       aGero_model1_bm
 0001:80377FEC       aGqgbgB
 0001:80377FF8       aEnemyGesso_prm
 0001:8037800C       aSceneRikugesso
 0001:80378190       aMactormtxcalctype_basicGngigvgbgngxgpbGlvnvm_8
 0001:803781C0       aMactormtxcalctype_softimageGngigvgbgngxgpbGlvnveve_9
 0001:803781F8       aMactormtxcalctype_motionblendGvbGvgzgugugmgugh_8
 0001:8037822C       aMactormtxcalctype_userGjbGubTsl_5
 0001:80378250       aNullrail
 0001:80378340       aSceneHanekuriB
 0001:80378368       aSceneHanekur_0
 0001:80378390       aSceneHanekur_1
 0001:803783B8       aSceneHanekur_2
 0001:803783E0       aSceneHamukur_0
 0001:8037840C       aSceneHamukur_1
 0001:8037843C       aSceneHamukur_2
 0001:80378468       aSceneHamukur_3
 0001:80378494       aSceneHamukur_4
 0001:803784BC       aSceneHamukur_5
 0001:803784E4       aSceneHamukur_6
 0001:80378514       aSceneHamukur_7
 0001:80378544       aSceneHamukur_8
 0001:80378574       aSceneHamukur_9
 0001:803785A0       aHamukuri_walk
 0001:803785B0       aHamukuri_run
 0001:803785C0       aDefault_bmd_0
 0001:803785CC       aHanekuri_wait
 0001:803785DC       aHanekuri_bmd
 0001:803785EC       aDorohane_bmd
 0001:80378614       aDorokuri_model
 0001:80378628       aSceneDorokuriD
 0001:8037864C       aSceneMapPoll_5
 0001:80378670       aH_ma_rak_dummy
 0001:8037869C       aSceneHanekuriD
 0001:803786C0       a_mat_body_top1
 0001:803786D0       aVVigngagngk
 0001:803786E0       aMushroom1up
 0001:803786EC       aMario_cap_0
 0001:803786F8       aEnemyDorohamuk
 0001:80378710       a_mat_body_bott
 0001:80378724       a_mat_nose1
 0001:80378730       a_mat_lfoot1
 0001:8037873C       a_mat_rfoot1
 0001:80378748       aGdglgogk
 0001:80378754       aEnemyFirehamuk
 0001:8037876C       aMslrecovertime
 0001:803787BC       aGngagngkgGlb_0
 0001:803787E4       aEnemyDangohamu
 0001:80378800       aGhgngnglgngk
 0001:80378810       aEnemyDorohanek
 0001:80378828       aMslnormaljumpv
 0001:80378838       aMslattackjumpv
 0001:80378848       aMslflybaseheig
 0001:8037885C       aMslflybaseampl
 0001:80378870       aMslflybasefreq
 0001:80378884       aVVGngagngk
 0001:80378894       aEnemyHanehamuk
 0001:803788AC       aGngagngk
 0001:803788B8       aSceneHamukuria
 0001:803788CC       aEnemyHamukuri_
 0001:803788E0       aMslwatercoeff
 0001:803788F0       aMslwaterattack
 0001:80378904       aMslfirstveloci
 0001:80378918       aMslvelocityrat
 0001:80378928       aMslboundnum
 0001:80378934       aMslsearchactor
 0001:80378948       aMslcansearchdi
 0001:8037895C       aMsljitabatatim
 0001:80378970       aMslfirstkickve
 0001:80378988       aMslflytimer
 0001:80378994       aMsltramplebonu
 0001:803789A8       aMslcrashbonusn
 0001:803789BC       aMslserialcrash
 0001:803789D0       aMslkyorotimer
 0001:803789EC       aGbgvgkvkslvsvVV_0
 0001:80378A01       aActormtxcalctype_basicGngigvgbgngxgpbGlvnvm
 0001:80378A30       aMactormtxcalctype_softimageGngigvgbgngxgpbGlvnveve
 0001:80378A68       aMactormtxcalctype_motionblendGvbGvgzgugugmgugh
 0001:80378A9C       aMactormtxcalctype_userGjbGubTsl
 0001:80378AD8       aSceneHinokuri2
 0001:80378B04       aSceneHinokur_0
 0001:80378B30       aSceneHinokur_1
 0001:80378B5C       aSceneHinokur_2
 0001:80378B8C       aSceneHinokur_3
 0001:80378BBC       aSceneHinokur_4
 0001:80378BE8       aSceneHinokur_5
 0001:80378C10       aSceneHinokur_6
 0001:80378C38       aSceneHinokur_7
 0001:80378C64       aSceneHinokur_8
 0001:80378C8C       aSceneHinokur_9
 0001:80378CB8       aSceneHinoku_10
 0001:80378CE0       aSceneHinoku_11
 0001:80378D0C       aSceneHinoku_12
 0001:80378D38       aSceneHinoku_13
 0001:80378D60       aSceneHinoku_14
 0001:80378D88       aSceneHinoku_15
 0001:80378DBC       aSceneHinoku_16
 0001:80378DF0       aHinokuri2_mode
 0001:80378E04       aHinokuri2_mask
 0001:80378E20       aHinokuri2_ma_0
 0001:80378E3C       aHinokuri2_ma_1
 0001:80378E94       aGigbgngkgGlbGwggb
 0001:80378EAC       aGngagngkgGlbGwggb
 0001:80378EC4       aHinokuri
 0001:80378ED0       aUggoglbGv_25
 0001:80378EDC       aGqgmgngkvqgqgbgggigugwgfgngg
 0001:80378EFC       aEnemyHinokuri2water_prm
 0001:80378F18       aHinokuri2_clack
 0001:80378F28       aGqgmgngkvq
 0001:80378F34       aEnemyHinokuri2
 0001:80378F4C       aMslmarchspeedl
 0001:80378F60       aMslmarchspee_0
 0001:80378F74       aMslmarchspee_1
 0001:80378F88       aMslturnspeedlv
 0001:80378F98       aMslturnspeed_0
 0001:80378FA8       aMslturnspeed_1
 0001:80378FB8       aMslbodyscale
 0001:80378FC8       aMslwalkshake
 0001:80378FD8       aMsljumpshake
 0001:80378FE8       aMslgravityy
 0001:80378FF4       aMslprepolwait
 0001:80379004       aMslpolwaitcoun
 0001:80379014       aMslpolinterval
 0001:80379028       aMslpolinterv_0
 0001:8037903C       aMsldamageheads
 0001:80379050       aMsldamagetimer
 0001:80379060       aMslheadhitr
 0001:8037906C       aMslheadhith
 0001:80379078       aMslbodyhitr
 0001:80379084       aMslbodyhith
 0001:80379090       aMslbodyhitr0
 0001:803790A0       aMslbodyhith0
 0001:803790B0       aMslbankprop
 0001:803790BC       aMslbanklimit
 0001:803790CC       aMsljumpquakele
 0001:803790DC       aMslstampprob
 0001:803790EC       aMslstampcount
 0001:803790FC       aMslstampquakel
 0001:80379110       aMslwateremitpo
 0001:80379120       aMslhitpointm_0
 0001:80379134       aMslhitpointm_1
 0001:80379148       aMslhitpointm_2
 0001:8037915C       aMslfreezetimer
 0001:80379170       aMslinvinciblet
 0001:80379184       aMslwalkspeedra
 0001:80379404       aDefault_bmd_1
 0001:80379410       aVVGqgbgB
 0001:80379420       aEnemyMamegesso
 0001:80379438       aMsljumpwanderg
 0001:80379450       aMsljumpwanders
 0001:80379464       aMslpickuptime
 0001:80379474       aMslthrowngravi
 0001:80379488       aMslthrownvy
 0001:80379494       aMslthrownratex
 0001:803794A4       aMslgenerateint
 0001:803794B8       aMslwaittimeong
 0001:803794CC       aMslwaittimeinw
 0001:803794E0       aMslobjectrecov
 0001:803794F8       aMslobjectscale
 0001:80379508       aMslcollisionsc
 0001:8037951C       aMslreturnjumpd
 0001:80379530       aMslreturnjumps
 0001:80379684       aName_bmd
 0001:80379690       aKgougigbgngk
 0001:803796A0       aEnemyDiffusion
 0001:803796C0       aMslalivetime
 0001:803796D0       aMsllandheight
 0001:803796E0       aMsljumpattackg
 0001:803796F8       aMsljumpattacks
 0001:80379708       aMsljumpattackt
 0001:8037971C       aMsljumpprepare
 0001:80379730       aMsljumpmaxfram
 0001:80379740       aMsljumpmaxangl
 0001:80379750       aMsljumpmaxscal
 0001:80379760       aMslcolorchange
 0001:80379774       aMsljumpattackr
 0001:80379788       aMsljumpattacka
 0001:8037979C       aGxgngkbGugeg_3
 0001:803797B4       aH_ma_rak_dum_0
 0001:803797C4       aGigbgngk
 0001:803797D0       aSceneNamekuri2
 0001:803797EC       a_mat_body_0
 0001:803797F8       aSceneMapPoll_6
 0001:8037981C       aTsharedparts_2
 0001:8037982C       aK_name_dummy
 0001:8037983C       aBottle_short
 0001:8037984C       aEnemyNamekuri_
 0001:80379860       aGigbgngkgGlbGw
 0001:80379958       aScenePakkunBas
 0001:80379984       aScenePakkunB_0
 0001:803799A8       aScenePakkunB_1
 0001:803799CC       aScenePakkunB_2
 0001:803799F0       aScenePakkunB_3
 0001:80379A10       aScenePakkunB_4
 0001:80379A34       aPakun_bmd
 0001:80379A40       aGpgbgnguoa
 0001:80379A4C       aSeed_bmd
 0001:80379A58       aGggtgfgnggre_0
 0001:80379A74       aGigugwgfgngggo
 0001:80379A8C       aNull_seed
 0001:80379A98       aSceneMapPoll_7
 0001:80379ABC       aH_ma_rak_dum_1
 0001:80379ACC       aGpgbgngu
 0001:80379AD8       aEnemyPakkun_pr
 0001:80379AEC       aMslreadytime
 0001:80379AFC       aMslshootrange
 0001:80379B0C       aMslseedgravity
 0001:80379B1C       aMslseedspeeds
 0001:80379B2C       aMslseedgravi_0
 0001:80379B3C       aMslseedspeedc
 0001:80379B4C       aMslmariocircle
 0001:80379B5C       aMsllimitmove
 0001:80379B6C       aMslmovedist
 0001:80379B78       aMslgeneratesee
 0001:80379B8C       aMslgenerates_0
 0001:80379BA0       aMsldamagehidet
 0001:80379BB4       aEnemyStaypakku
 0001:80379BCC       aEnemyPakkunwat
 0001:80379BE4       aEnemyPakkunhid
 0001:80379CF8       aDefault_bmd_2
 0001:80379D04       aGggtgfgnggre_1
 0001:80379D20       aCommonTimgDown
 0001:80379D3C       aMsljumpforce
 0001:80379D4C       aMslsearchlengt
 0001:80379D5C       aMslsearchheigh
 0001:80379D6C       aMslsearchaware
 0001:80379D7C       aMslsearchangle
 0001:80379D8C       aMslgiveuplengt
 0001:80379D9C       aMslgiveupheigh
 0001:80379DAC       aMslattackwait
 0001:80379DBC       aMslfreezewait
 0001:80379DCC       aMsldamageradiu
 0001:80379DDC       aMsldamageheigh
 0001:80379DEC       aMslattackradiu
 0001:80379DFC       aMslattackheigh
 0001:80379E0C       aMslturnspeedlo
 0001:80379E1C       aMslturnspeedhi
 0001:80379E30       aMslbodyscalelo
 0001:80379E40       aMslbodyscalehi
 0001:80379E54       aMslgenitemrate
 0001:80379E64       aMslgeneggrate
 0001:80379E74       aMslpolluterang
 0001:80379E84       aMslwaittime
 0001:80379E90       aMslpollutermin
 0001:80379EA0       aMslpollutermax
 0001:80379EB0       aMslpollutecycl
 0001:80379EC0       aMslstamprange
 0001:80379ED0       aMslpolluteinte
 0001:80379EE4       aMslgenerateonl
 0001:8037A208       aSceneBgesoBasBgeso_cannon_bas
 0001:8037A3C8       aBgeso_body_bmd
 0001:8037A3D8       aBgeso_hand_bmd
 0001:8037A3E8       aBgeso_shand_bm
 0001:8037A3F8       aBgeso_dirty_wh
 0001:8037A410       aBgeso_osenball
 0001:8037A424       aBgeso_osenba_0
 0001:8037A440       aBgeso_kolk_bmd
 0001:8037A450       aBgeso_kolk_bre
 0001:8037A570       aEnemyBossgesso
 0001:8037A588       aSceneBgesoJpaM
 0001:8037A5B0       aSceneBgesoJp_0
 0001:8037A5D8       aSceneBgesoJp_1
 0001:8037A600       aSceneBgesoJp_2
 0001:8037A628       aSceneBgesoJp_3
 0001:8037A64C       aSceneBgesoJp_4
 0001:8037A670       aSceneBgesoJp_5
 0001:8037A694       aSceneBgesoJp_6
 0001:8037A6BC       aSceneBgesoJp_7
 0001:8037A6E4       aSceneBgesoJp_8
 0001:8037A70C       aSceneBgesoJp_9
 0001:8037A734       aSceneBgesoJ_10
 0001:8037A758       aSceneBgesoJ_11
 0001:8037A77C       aSceneBgesoJ_12
 0001:8037A7A0       aSceneBgesoJ_13
 0001:8037A7C8       aSceneBgesoJ_14
 0001:8037A7EC       aSceneBgesoJ_15
 0001:8037A814       aSceneBgesoJ_16
 0001:8037A83C       aSceneBgesoJ_17
 0001:8037A864       aSceneBgesoJ_18
 0001:8037A88C       aSceneBgesoJ_19
 0001:8037A8B0       aSceneBgesoJ_20
 0001:8037A8D4       aSceneBgesoJ_21
 0001:8037A8F8       aSceneBgesoJ_22
 0001:8037A91C       aSceneBgesoJ_23
 0001:8037A940       aContainer
 0001:8037A94C       aGngGogvbivVivB
 0001:8037A960       aUggoglbGv_11
 0001:8037A96C       aTbgpoldrop
 0001:8037A97C       aSceneMapPoll_8
 0001:8037A9A0       aH_ma_rak_dum_2
 0001:8037A9B0       aGggtgfgnggre_2
 0001:8037A9CC       aMslunisoninter
 0001:8037A9DC       aMslunisonhomin
 0001:8037A9EC       aMslsinglehomin
 0001:8037A9FC       aMslbeakhoming
 0001:8037AA0C       aMslregenfoot
 0001:8037AA1C       aMslamputeetime
 0001:8037AA2C       aMslresttime
 0001:8037AA38       aMslstuntime
 0001:8037AA44       aMslbeakdamageh
 0001:8037AA58       aMslbeakdamager
 0001:8037AA6C       aMslbeaklengthl
 0001:8037AA80       aMslbeaklengthd
 0001:8037AA94       aMslbeaklengthp
 0001:8037AAAC       aMslunisonattac
 0001:8037AAC4       aMsldoubleattac
 0001:8037AADC       aMslskipropeatt
 0001:8037AAF4       aMslsingleattac
 0001:8037AB08       aMsldoubleatt_0
 0001:8037AB1C       aMslunisonatt_0
 0001:8037AB30       aMslforceunison
 0001:8037AB44       aMslguardlen
 0001:8037AB50       aMsltentaclestr
 0001:8037AB64       aMslbeakstretch
 0001:8037AB74       aMsleyedamagera
 0001:8037AB88       aMsleyedamagehe
 0001:8037AB9C       aMslshootradius
 0001:8037ABAC       aMslblurjoint
 0001:8037ABBC       aMslblurscale
 0001:8037ABCC       aMslcolumnscale
 0001:8037ABDC       aMslsightangle
 0001:8037ABEC       aMslamputeewait
 0001:8037ACE0       aSceneDennokoBa
 0001:8037AD08       aSceneDennoko_0
 0001:8037AD30       aSceneDennoko_1
 0001:8037AD5C       aSceneDennoko_2
 0001:8037AD80       aSceneDennoko_3
 0001:8037ADAC       aSceneDennoko_4
 0001:8037ADDC       aSceneDennoko_5
 0001:8037AE08       aSceneDennoko_6
 0001:8037AE30       aSceneDennoko_7
 0001:8037AE58       aSceneDennoko_8
 0001:8037AE84       aDennoko_model1
 0001:8037AE98       aUggoglbGv_4
 0001:8037AEA4       aGmgrgmgrnbce
 0001:8037AEB4       aKoura_model1_b
 0001:8037AEC8       aUdlcgmgrgmgr
 0001:8037AED8       aEnemyElecnokon
 0001:8037AEF0       aMslreadytime_0
 0001:8037AF00       aMslcarapacegra
 0001:8037AF14       aMslcarapacespe
 0001:8037AF28       aMslcarapacetur
 0001:8037AF40       aMslcarapacespi
 0001:8037AF58       aMslcarapacesho
 0001:8037AF70       aMslcarapacefly
 0001:8037AF84       aSceneDennokoDe
 0001:8037B104       aTelesa_bmd
 0001:8037B110       aDefault_bmd_3
 0001:8037B11C       aGegmgtgGlbGwgg
 0001:8037B130       aGxgngkbGugeg_4
 0001:8037B148       aH_kagemario__0
 0001:8037B15C       aGjgqgGkgigvghg
 0001:8037B170       aEnemyKagemario
 0001:8037B18C       aSceneMapobjCoi
 0001:8037B1A4       aSceneMapobjC_0
 0001:8037B1C0       aSceneMapobjC_1
 0001:8037B1DC       aSceneMapobjFru
 0001:8037B1FC       aSceneMapobjF_0
 0001:8037B21C       aSceneMapobjF_1
 0001:8037B23C       aSceneMapobjF_2
 0001:8037B258       aSceneMapobjF_3
 0001:8037B278       aSceneMapobjMas
 0001:8037B298       aSceneMapobjKib
 0001:8037B2B4       aSceneMapobjWoo
 0001:8037B2D4       aSceneMontemMom
 0001:8037B2F0       aTsharedparts_3
 0001:8037B300       aTelesablock
 0001:8037B30C       aH_ma_rak_dum_3
 0001:8037B31C       a_mat_body
 0001:8037B328       aEnemyTelesa_pr
 0001:8037B33C       aSceneTelesaMod
 0001:8037B358       aMslfadeintime
 0001:8037B368       aMslappeartime
 0001:8037B378       aMslfadeouttime
 0001:8037B388       aMslflyheightma
 0001:8037B398       aMslflyheightmi
 0001:8037B3A8       aMslflyamplitud
 0001:8037B3BC       aMslflyamplit_0
 0001:8037B3D0       aMslflyfrequenc
 0001:8037B3E4       aMslflyfreque_0
 0001:8037B3F8       aMsltelesagravi
 0001:8037B40C       aMslgenattacker
 0001:8037B420       aMsltelesaattac
 0001:8037B438       aMsltelesapower
 0001:8037B450       aMslloopappeart
 0001:8037B464       aMslloophidetim
 0001:8037B638       aWanwan_bmd
 0001:8037B644       aSceneFirewanwa
 0001:8037B66C       aSceneFirewan_0
 0001:8037B698       aSceneFirewan_1
 0001:8037B720       aGvgggcgubigGxc
 0001:8037B734       aGGxgvgggcgugjg
 0001:8037B748       aEnemyFirewanwa
 0001:8037B760       aMmarchspeed_0
 0001:8037B76C       aMattackspeedra
 0001:8037B780       aMattacktimerma
 0001:8037B790       aMescapespeedra
 0001:8037B7A4       aMescaperecover
 0001:8037B7B8       aMslflyspeed
 0001:8037B7C4       aMslflygravityy
 0001:8037B7D4       aMairfric
 0001:8037B7E0       aMfloorfric
 0001:8037B7EC       aMrotatey
 0001:8037B7F8       aMnocollidetime
 0001:8037B80C       aMstopsearchtim
 0001:8037B820       aMtaillengthtof
 0001:8037B834       aMcamshakerange
 0001:8037B844       aMcontshakerang
 0001:8037B854       aMpollutetimerm
 0001:8037B868       aMfreezetimethr
 0001:8037B880       aMslfreezewaits
 0001:8037B894       aMrecoverrate
 0001:8037B8A4       aMpollutenormal
 0001:8037B8B8       aMpolluteattack
 0001:8037B8CC       aMtailendpowrat
 0001:8037B8DC       aMrubberboundra
 0001:8037B8F0       aMrubberdecay
 0001:8037B900       aMrubberbound_0
 0001:8037B918       aMrubberdecayhi
 0001:8037B92C       aMtailendcolran
 0001:8037B940       aMtailapartpowr
 0001:8037B954       aMtailmaxlength
 0001:8037B964       aMboss22helpran
 0001:8037B978       aMboss23timerma
 0001:8037B988       aUggoglbGv_5
 0001:8037BE40       aBosspaku_model
 0001:8037BE54       aPollut_ball_bm
 0001:8037BE64       aPollut_ball__0
 0001:8037BEF0       aTrunade_bmd
 0001:8037BF98       aGqgngggkgagGlb
 0001:8037BFB0       aGvgggcgubigG_0
 0001:8037BFC4       aGGxgvgggcgug_0
 0001:8037BFD8       aGigbgngkgGlb_0
 0001:8037BFF0       aEnemyBosspakku
 0001:8037C008       aSceneBosspakku
 0001:8037C030       aSceneBosspak_0
 0001:8037C058       aSceneBosspak_1
 0001:8037C084       aSceneBosspak_2
 0001:8037C0B0       aSceneBosspak_3
 0001:8037C0DC       aSceneBosspak_4
 0001:8037C108       aSceneBosspak_5
 0001:8037C130       aSceneBosspak_6
 0001:8037C158       aSceneBosspak_7
 0001:8037C180       aSceneBosspak_8
 0001:8037C1AC       aSceneBosspak_9
 0001:8037C1D8       aSceneBosspa_10
 0001:8037C204       aPollut_ball
 0001:8037C210       aPollut_ball_01
 0001:8037C220       aPollut_ball_02
 0001:8037C230       aUggoglbGv_6
 0001:8037C23C       aGGxgpgbgnguukx
 0001:8037C250       aGGxgpgbgnguvV
 0001:8037C264       aSceneBosspa_11
 0001:8037C278       aCol_body_col
 0001:8037C288       aTbppoldrop
 0001:8037C298       aSceneMapPoll_9
 0001:8037C2BC       aTbpvomit
 0001:8037C2C8       aTbptornado
 0001:8037C2D8       aEnemyBosspakuw
 0001:8037C2F4       aBosspakkun
 0001:8037C300       aPollut_ball_st
 0001:8037C314       aMslwaitframest
 0001:8037C328       aMslwatermarkli
 0001:8037C33C       aMslswinglength
 0001:8037C34C       aMslpollballsta
 0001:8037C364       aMsltumbletime
 0001:8037C374       aMslanmblendtim
 0001:8037C388       aMslflyspeed_0
 0001:8037C394       aMslpivotspeed
 0001:8037C3A4       aMslpivotspeeda
 0001:8037C3B8       aMslvomitanmrat
 0001:8037C3C8       aMslheadhomingl
 0001:8037C3DC       aMsldamageangle
 0001:8037C3EC       aMsltornadoprop
 0001:8037C3FC       aMsltornadospee
 0001:8037C40C       aMsltornadoroll
 0001:8037C420       aMsltornadomove
 0001:8037C434       aMsltornadomo_0
 0001:8037C448       aMsltornadomo_1
 0001:8037C45C       aMslwaterhittim
 0001:8037C470       aMslhovertimer
 0001:8037C480       aMslpollballran
 0001:8037C494       aMslpollballspe
 0001:8037C4A8       aMslpollballfro
 0001:8037C750       aGggtgfgnggre_3
 0001:8037C76C       aGvgggvgngGlbGw
 0001:8037C784       aVVGvgngGlbGwgg
 0001:8037C79C       aGvgggvgn
 0001:8037C7A8       aVVGvgn
 0001:8037C7B4       aEnemyTobipuku_
 0001:8037C7C8       aMslboundnum_0
 0001:8037C7D4       aMslboundval
 0001:8037C7E0       aMsllifetimer
 0001:8037C7F0       aMslflygravit_0
 0001:8037C800       aMslpowerfromwa
 0001:8037C814       aGvgggvgnfnoSf
 0001:8037C824       aVVGvgnfnoSf
 0001:8037C834       aEnemyTobipukul
 0001:8037C850       aMsllaunchinter
 0001:8037C864       aMsllaunchveloc
 0001:8037C878       aMslflydist
 0001:8037C884       aMslflyspeed_1
 0001:8037C890       aMsllaunchangle
 0001:8037C998       aSceneTinkoopaB
 0001:8037C9C0       aSceneTinkoop_1
 0001:8037C9E8       aSceneTinkoop_2
 0001:8037CA10       aSceneTinkoop_3
 0001:8037CA38       aSceneTinkoop_4
 0001:8037CA64       aSceneTinkoop_5
 0001:8037CA90       aSceneTinkoop_6
 0001:8037CABC       aSceneTinkoop_7
 0001:8037CAE8       aSceneTinkoop_8
 0001:8037CB10       aSceneTinkoop_9
 0001:8037CB38       aSceneTinkoo_10
 0001:8037CB60       aSceneTinkoo_11
 0001:8037CB88       aSceneTinkoo_12
 0001:8037CBB0       aJnt_head_0
 0001:8037CBBC       aJnt_breast
 0001:8037CBC8       aJnt_stomach
 0001:8037CBD4       aJnt_rarm
 0001:8037CBE0       aJnt_larm
 0001:8037CBEC       aJnt_leye
 0001:8037CBF8       aJnt_reye
 0001:8037CC04       aFire_null
 0001:8037CC10       aFire_col_null
 0001:8037CC20       aJnt_femur
 0001:8037CC2C       aKiller_null1
 0001:8037CC3C       aKiller_null2
 0001:8037CC4C       aKiller_null3
 0001:8037CC5C       aKiller_null4
 0001:8037CC6C       aSceneTinkoopaH
 0001:8037CC8C       aSceneTinkoo_13
 0001:8037CCAC       aSceneTinkoopaS
 0001:8037CCCC       aSceneTinkoopaR
 0001:8037CCEC       aSceneTinkoopaL
 0001:8037CD0C       aSceneTinkoo_14
 0001:8037CD28       aTinkoopa_breas
 0001:8037CD3C       aTinkoopa_stoma
 0001:8037CD54       aTinkoopa_rarm_
 0001:8037CD68       aTinkoopa_larm_
 0001:8037CD7C       aBreast_1
 0001:8037CD88       aBreast_2
 0001:8037CD94       aBreast_3
 0001:8037CDA0       aBreast_4
 0001:8037CDAC       aBreast_5
 0001:8037CDB8       aBreast_6
 0001:8037CDC4       aStomach_1
 0001:8037CDD0       aStomach_2
 0001:8037CDDC       aStomach_3
 0001:8037CDE8       aStomach_4
 0001:8037CDF4       aStomach_5
 0001:8037CE00       aStomach_6
 0001:8037CE0C       aTinkoopa_body_
 0001:8037CE38       aSceneTinkoopaJ
 0001:8037CE64       aSceneTinkoo_15
 0001:8037CE8C       aSceneTinkoo_16
 0001:8037CEB4       aSceneTinkoo_17
 0001:8037CEE0       aSceneTinkoo_18
 0001:8037CF0C       aSceneTinkoo_19
 0001:8037CF38       aSceneTinkoo_20
 0001:8037CF64       aSceneTinkoop_0
 0001:8037CF90       aSceneTinkoo_21
 0001:8037CFBC       aSceneTinkoo_22
 0001:8037CFE8       aSceneTinkoo_23
 0001:8037D014       aSceneTinkoo_24
 0001:8037D040       aSceneTinkoo_25
 0001:8037D06C       aSceneTinkoo_26
 0001:8037D098       aSceneTinkoo_27
 0001:8037D0C4       aSceneTinkoo_28
 0001:8037D0F0       aSceneTinkoo_29
 0001:8037D11C       aSceneTinkoo_30
 0001:8037D148       aSceneTinkoo_31
 0001:8037D174       aSceneTinkoo_32
 0001:8037D1A0       aSceneTinkoo_33
 0001:8037D1CC       aSceneTinkoo_34
 0001:8037D1F8       aSceneTinkoo_35
 0001:8037D220       aSceneTinkoo_36
 0001:8037D248       aSceneTinkoo_37
 0001:8037D270       aEnemyTinkoopa_
 0001:8037D284       aGrbGxgBGlgibGG
 0001:8037D2A4       aGggtgfgnggfFng
 0001:8037D2C0       aUggoglbGv_7
 0001:8037D2CC       aMslpartshp
 0001:8037D2D8       aMslflamehp
 0001:8037D2E4       aMslflamereviva
 0001:8037D2F8       aMslflamedamage
 0001:8037D310       aMslflamedama_0
 0001:8037D328       aMslflamedama_1
 0001:8037D340       aMslflamedama_2
 0001:8037D358       aMsldamagerad_0
 0001:8037D368       aMsldamagehei_0
 0001:8037D37C       aMsldamagehei_1
 0001:8037D390       aMslkillerinter
 0001:8037D3A4       aMsldefeatwaitt
 0001:8037D3B8       aMslkillerappro
 0001:8037D510       aGenerator_mode
 0001:8037D6A0       aSceneBwanwanBa
 0001:8037D6C4       aSceneBwanwan_0
 0001:8037D6EC       aSceneBwanwan_1
 0001:8037D710       aSceneBwanwan_2
 0001:8037D738       aBwanwan_body_b
 0001:8037D74C       aBwanwan_chain_
 0001:8037D760       aBwanwan_picket
 0001:8037D7E0       aGggtgfgnggre_4
 0001:8037D7FC       aEnemyBosswanwa
 0001:8037D814       aSceneBwanwanJp
 0001:8037D840       aSceneBwanwan_3
 0001:8037D86C       aSceneBwanwan_4
 0001:8037D894       aSceneBwanwan_5
 0001:8037D8BC       aSceneBwanwan_6
 0001:8037D8E4       aSceneBwanwan_7
 0001:8037D90C       aSceneBwanwan_8
 0001:8037D934       aSceneBwanwan_9
 0001:8037D958       aGGxgpgugpgu
 0001:8037D968       aGGxgpgugpgun
 0001:8037D978       aGGxgpgugpguvVi
 0001:8037D98C       aUggoglbGv_12
 0001:8037D998       aGGxgpgugpgugqg
 0001:8037D9AC       aSceneBwanwan
 0001:8037D9BC       aBwanwan_ofuro_
 0001:8037D9D4       aMslmarchspeed
 0001:8037D9E4       aMslturnspeed
 0001:8037D9F4       aMslleashnodele
 0001:8037DA04       aMslpicketheigh
 0001:8037DA14       aMslpicketradiu
 0001:8037DA24       aMslchainhithei
 0001:8037DA38       aMslchainhitrad
 0001:8037DA4C       aMslchainground
 0001:8037DA64       aMslpulllimit
 0001:8037DA74       aMslattackspeed
 0001:8037DA84       aMslstuntimer
 0001:8037DA94       aMslsearchlen_0
 0001:8037DAA4       aMslsearchang_0
 0001:8037DAB4       aMslbwhitpointm
 0001:8037DAC8       aMslheadgap
 0001:8037DAD4       aMslshakelength
 0001:8037DAE8       aMslshakeleng_0
 0001:8037DBF8       aSceneTyuhanaBa
 0001:8037DC24       aSceneTyuhana_0
 0001:8037DC50       aSceneTyuhana_1
 0001:8037DC74       aSceneTyuhana_2
 0001:8037DC98       aSceneTyuhana_3
 0001:8037DCBC       aDefault_bmd_4
 0001:8037DCC8       aGGegegngiinl
 0001:8037DCD8       aGGegegngi
 0001:8037DCE4       aEnemyChuuhana_
 0001:8037DCF8       aMslgetwaterpow
 0001:8037DD08       aMslgetgroundpo
 0001:8037DD18       aMslkeepbalance
 0001:8037DD2C       aMslcheckframe
 0001:8037DD3C       aMslreverseheig
 0001:8037DD50       aMslstretchheig
 0001:8037DD64       aMslmediumstret
 0001:8037DD7C       aMslsmallstretc
 0001:8037DD94       aMslreversehe_0
 0001:8037DDA8       aMslstretchhe_0
 0001:8037DDBC       aMslmediumstr_0
 0001:8037DDD4       aMslsmallstre_0
 0001:8037DDEC       aMslreversehe_1
 0001:8037DE00       aMslstretchhe_1
 0001:8037DE14       aMslmediumstr_1
 0001:8037DE2C       aMslsmallstre_1
 0001:8037DE44       aMslwalkgravity
 0001:8037DE54       aMslwaterhitgra
 0001:8037DE68       aMsljumpgravity
 0001:8037DE78       aMsljumpsp
 0001:8037DE84       aMsljumpheight
 0001:8037DE94       aMslgetwaterp_0
 0001:8037DEA4       aMsltacklepow
 0001:8037DEB4       aMsldashrate
 0001:8037DEC0       aMslattacktimer
 0001:8037DED0       aMslhitwatertim
 0001:8037DFC8       aSceneIgaigaBas
 0001:8037DFEC       aSceneIgaigaB_0
 0001:8037E010       aSceneIgaigaB_1
 0001:8037E034       aSceneIgaigaB_2
 0001:8037E05C       aSceneIgaigaB_3
 0001:8037E084       aIgaiga_model1_
 0001:8037E0B0       aBosspaku_head_move
 0001:8037E0C4       aGorogoro0
 0001:8037E0D0       aGorogoro1
 0001:8037E0DC       aBosspaku_head_
 0001:8037E0F0       aGsgngsgninl
 0001:8037E100       aSceneMapPollut
 0001:8037E138       aGsgngsgn
 0001:8037E144       aGcgxguggbitn_0
 0001:8037E164       aGsgngsgnfnrGGl
 0001:8037E180       aEnemyGorogoro_
 0001:8037E194       aMslgeneratei_0
 0001:8037E1A8       aMslexpandrate
 0001:8037E1B8       aMslexpandmax
 0001:8037E1C8       aMslboundvymax
 0001:8037E1D8       aMslgroundoffse
 0001:8037E1EC       aSceneGorogoroB
 0001:8037E234       aGcgkgcgk
 0001:8037E240       aEnemyIgaiga_pr
 0001:8037E254       aEnemyIgaigawat
 0001:8037E26C       aSceneIgaigaSta
 0001:8037E388       aScenePoihanaBa
 0001:8037E3AC       aScenePoihana_0
 0001:8037E3D4       aScenePoihana_1
 0001:8037E3FC       aScenePoihana_2
 0001:8037E420       aScenePoihana_3
 0001:8037E44C       aScenePoihana_4
 0001:8037E474       aScenePoihana_5
 0001:8037E49C       aScenePoihana_6
 0001:8037E4C0       aScenePoihana_7
 0001:8037E4E8       aScenePoihana_8
 0001:8037E514       aDefault_bmd_5
 0001:8037E520       aGGcgngigrgkgwg
 0001:8037E534       aUggoglbGv_13
 0001:8037E540       aGGcgngi
 0001:8037E54C       aEnemyPoihana_p
 0001:8037E560       aMslthrowspeed
 0001:8037E570       aMslbackthrowva
 0001:8037E580       aMslsleepframe
 0001:8037E590       aMslwakeframe
 0001:8037E5A0       aMsltrapjumpmax
 0001:8037E5B4       aMsltrapjumpmin
 0001:8037E5C8       aMsltrapjumpm_0
 0001:8037E5DC       aMsltrapjumpm_1
 0001:8037E5F0       aMsltrapjumpgra
 0001:8037E6E8       aSceneTamanokoB
 0001:8037E714       aSceneTamanok_0
 0001:8037E740       aSceneTamanok_1
 0001:8037E76C       aSceneTamanok_2
 0001:8037E794       aSceneTamanok_3
 0001:8037E7BC       aSceneTamanok_4
 0001:8037E7E8       aSceneTamanok_5
 0001:8037E814       aSceneTamanok_6
 0001:8037E840       aSceneTamanok_7
 0001:8037E86C       aSceneTamanok_8
 0001:8037E894       aSceneTamanok_9
 0001:8037E8C0       aSceneTamano_10
 0001:8037E8F0       aTamanoko_model
 0001:8037E904       aGggtgfgnggnTmg
 0001:8037E920       aGGGmgr
 0001:8037E92C       aSceneTamanokoT
 0001:8037E954       aGGGmgrgtgigpb
 0001:8037E968       aSceneTamanokoJ
 0001:8037E98C       aEnemyTamanoko_
 0001:8037E9A0       aMslpickuptim_0
 0001:8037E9B0       aMsljumpattackd
 0001:8037E9C4       aMslthrownvy_0
 0001:8037E9D0       aMslthrownrat_0
 0001:8037E9E0       aMslthrowngra_0
 0001:8037E9F4       aMsljumpattac_0
 0001:8037EA04       aMslattackgravi
 0001:8037EA18       aMslsinktime
 0001:8037EA24       aMslwakeuptimer
 0001:8037EB30       aSceneBtelesaBa
 0001:8037EB58       aSceneBtelesa_0
 0001:8037EB80       aSceneBtelesa_1
 0001:8037EBA8       aSceneBtelesa_2
 0001:8037EBCC       aSceneBtelesa_3
 0001:8037EBF0       aSceneBtelesa_4
 0001:8037EC18       aSceneBtelesa_5
 0001:8037EC3C       aSceneBtelesa_6
 0001:8037EC60       aBtelesa_osenbu
 0001:8037EC7C       aBtelesa_bmd
 0001:8037EC88       aA
 0001:8037EC8C       aA_0
 0001:8037EC90       aA_1
 0001:8037EC94       aA_2
 0001:8037EC98       aA_3
 0001:8037EC9C       aA_4
 0001:8037ECA0       aA_5
 0001:8037ECA4       aA_6
 0001:8037ECA8       aGoguglgGlbGwgg
 0001:8037ECBC       aGngagngkgGlb_1
 0001:8037ECD4       aGdglgogkgGlbGw
 0001:8037ECEC       aGGaxGGlbGwggb
 0001:8037ED00       aGGcgngigGlbGwg
 0001:8037ED18       aUdlcgmgrgmgrgG
 0001:8037ED34       aGGGGlbGwggb
 0001:8037ED48       aGqgbgBGGlbGwgg
 0001:8037ED60       aVVGvgngGlbGw_0
 0001:8037ED78       aGvgggcgubigG_1
 0001:8037ED8C       aGGxgvgggcgug_1
 0001:8037EDA0       aGegmgtgGlbGw_0
 0001:8037EDB4       aBtelesa_roll_c
 0001:8037EDC8       aFruitcoconut
 0001:8037EDD8       aFruitpapaya
 0001:8037EDE4       aFruitpine
 0001:8037EDF0       aFruitdurian
 0001:8037EDFC       aUvrhoq0
 0001:8037EE08       aUvrhoq1
 0001:8037EE14       aUvrhoq2
 0001:8037EE20       aUvrhoq3
 0001:8037EE2C       aUvrhoq4
 0001:8037EE38       aUvrhoq5
 0001:8037EE44       aUvrhoq6
 0001:8037EE50       aUvrhoq7
 0001:8037EE5C       aUvrhoq8
 0001:8037EE68       aUvrhoq9
 0001:8037EE74       aGrgcgu0
 0001:8037EE80       aGrgcgu1
 0001:8037EE8C       aGrgcgu2
 0001:8037EE98       aGrgcgu3
 0001:8037EEA4       aGrgcgu4
 0001:8037EEB0       aGrgcgu5
 0001:8037EEBC       aGrgcgu6
 0001:8037EEC8       aGrgcgu7
 0001:8037EED4       aGrgcgu8
 0001:8037EEE0       aGrgcgu9
 0001:8037EEEC       aBottle_large_1
 0001:8037EEFC       aSceneBtelesaJp
 0001:8037EF20       aSceneBtelesa_7
 0001:8037EF48       aSceneBtelesa_8
 0001:8037EF70       aSceneBtelesa_9
 0001:8037EF98       aSceneBteles_10
 0001:8037EFC0       aSceneBteles_11
 0001:8037EFE4       aSceneBteles_12
 0001:8037F00C       aSceneBteles_13
 0001:8037F034       aSceneBteles_14
 0001:8037F05C       aSceneBteles_15
 0001:8037F088       aSceneBteles_16
 0001:8037F0B0       aSceneBteles_17
 0001:8037F0D8       aSceneBteles_18
 0001:8037F100       aSceneBteles_19
 0001:8037F128       aSceneBteles_20
 0001:8037F14C       aSceneBteles_21
 0001:8037F174       aSceneBteles_22
 0001:8037F19C       aSceneBteles_23
 0001:8037F1C4       aSceneBteles_24
 0001:8037F1EC       aSceneBteles_25
 0001:8037F214       aSceneBteles_26
 0001:8037F238       aSceneBteles_27
 0001:8037F260       aSceneBtelesaSr
 0001:8037F280       aTsharedparts_4
 0001:8037F290       aGqgbgB0
 0001:8037F29C       aGqgbgB1
 0001:8037F2A8       a_mat_body_1
 0001:8037F2B4       aGGxgegmgtsGrgk
 0001:8037F2CC       aUggoglbGv_14
 0001:8037F2D8       aGGxgegmgtrugrg
 0001:8037F2F0       aGGxgegmgtogliu
 0001:8037F310       aGxgngkbGugeg_5
 0001:8037F328       aH_ma_rak_dum_4
 0001:8037F338       aGGxgegmgt
 0001:8037F344       aEnemyBossteles
 0001:8037F35C       aMsldamagerad_1
 0001:8037F36C       aMsldamagehei_2
 0001:8037F37C       aMslattackrad_0
 0001:8037F38C       aMslattackhei_0
 0001:8037F39C       aMslgenattack_0
 0001:8037F3B0       aMslgenbubbleti
 0001:8037F3C4       aMslhitangle
 0001:8037F3D0       aMslnumgenbubbl
 0001:8037F3E0       aMsl1stbubblesp
 0001:8037F3F0       aMslhidearearad
 0001:8037F404       aMslslotitemnum
 0001:8037F414       aMslslotfruitnu
 0001:8037F424       aMslslotfirsthi
 0001:8037F440       aMslslothitcoll
 0001:8037F458       aMsltransyoffse
 0001:8037F468       aMslstopslottim
 0001:8037F47C       aMslstopslott_0
 0001:8037F490       aMslstopslott_1
 0001:8037F4A4       aMslspicytime
 0001:8037F4B4       aGpgbgngugGlbGw
 0001:8037F4CC       aEnemyBubble_pr
 0001:8037F4E0       aMsllivetime
 0001:8037F4EC       aMslnumdivision
 0001:8037F4FC       aMslmaxscale
 0001:8037F508       aMsladdposbase
 0001:8037F518       aMslrateexpand
 0001:8037F528       aMsldeadheight
 0001:8037F618       aRiccohook_bmd
 0001:8037F7A0       aSceneBombheiBa
 0001:8037F7CC       aSceneBombhei_0
 0001:8037F7F4       aSceneBombhei_1
 0001:8037F820       aNejibomb_model
 0001:8037F834       aDownnejibomb_m
 0001:8037F84C       aGggtgfgnggfF_0
 0001:8037F86C       aGggtgfgnggnT_0
 0001:8037F888       aGggtgfgnggfF_1
 0001:8037F8A4       aEnemyBombhei_p
 0001:8037F8B8       aMslbombtime
 0001:8037F8C4       aMslbombrange
 0001:8037F8D4       aMslthrownvy_1
 0001:8037F8E0       aMslthrownrat_1
 0001:8037F8F0       aMslthrowngra_1
 0001:8037F904       aMslshootveloci
 0001:8037FB18       aMaregate
 0001:8037FB24       aGggtgfgnggfF_2
 0001:8037FB40       aTyorocam_pinna
 0001:8037FB50       aTyorocam_mare
 0001:8037FB60       aGlgibGGlbGwggb
 0001:8037FB74       aGcgkgcgkgGlbGw
 0001:8037FB8C       aGGaxGGlbGwgg_0
 0001:8037FBA0       aGGGGlbGwggb_0
 0001:8037FBB4       aGngagngkgGlb_2
 0001:8037FBCC       aSceneCannonCan
 0001:8037FBEC       aGGzgngxb
 0001:8037FBF8       aUggoglbGv_15
 0001:8037FC04       aCannonCannondo
 0001:8037FC18       aCannonCannonfu
 0001:8037FC2C       aSceneCannonHod
 0001:8037FC4C       aTsharedparts_0
 0001:8037FC5C       aSceneCannonJpa
 0001:8037FC80       aSceneCannonJ_0
 0001:8037FCA4       aSceneCannonJ_1
 0001:8037FCC8       aSceneCannonJ_2
 0001:8037FCEC       aSceneCannonJ_3
 0001:8037FD10       aSceneCannonJ_4
 0001:8037FD38       aEfmaregate
 0001:8037FD44       aSceneCannonTyo
 0001:8037FD68       aEnemyCannon_pr
 0001:8037FD7C       aMslhidedist
 0001:8037FD88       aMslbombdist
 0001:8037FD94       aMslkillerdist
 0001:8037FDA4       aMslbombinterva
 0001:8037FDB4       aMslkillerint_0
 0001:8037FDC8       aMslshootinterv
 0001:8037FDDC       aMslchorobeiatt
 0001:8037FDF4       aMslchorobeia_0
 0001:8037FE0C       aMslchorobeidam
 0001:8037FE24       aMslchorobeid_0
 0001:8037FE3C       aMslkillertrans
 0001:8037FE54       aMslbombheigene
 0001:8037FE6C       aMslthrowxzspee
 0001:80380010       aTears_bmd
 0001:8038001C       aTears_waterhit
 0001:80380030       aMeoto_model_bm
 0001:803800F0       aVVivGegigmcGGl
 0001:8038010C       aGvgggcgubigG_5
 0001:80380120       aVVivGegigmgvgg
 0001:8038013C       aMeoto_mogu_cam
 0001:80380150       aVVivGegigmvUkx
 0001:80380164       aUggoglbGv_16
 0001:80380170       aSGrgkgwgzgu
 0001:80380180       aPskqgrgkgwgzgu
 0001:80380190       aSceneBosseelEy
 0001:803801A8       aVVivGegigmc_0
 0001:803801B8       aSceneBosseelTo
 0001:803801D4       aSceneBosseelBa
 0001:803801F4       aSceneBosseelGo
 0001:80380214       aVVivGegigmvOx
 0001:80380228       aSceneBosseelMe
 0001:8038024C       aVVivGegigmgnbG
 0001:80380268       aCagrgkgwgzgu
 0001:80380278       aVVivGegigmiq
 0001:80380288       aGrgkgwgzguglge
 0001:8038029C       aTsharedparts_5
 0001:803802AC       aGigugwgfgngg_2
 0001:803802C4       aSceneBosseelJp
 0001:803802EC       aSceneBosseel_0
 0001:80380314       aSceneBosseel_1
 0001:8038033C       aSceneBosseel_2
 0001:80380368       aSceneBosseel_3
 0001:80380394       aSceneBosseel_4
 0001:803803BC       aSceneBosseel_5
 0001:803803E8       aSceneBosseel_6
 0001:80380410       aSceneBosseel_7
 0001:80380438       aSceneBosseel_8
 0001:80380460       aSceneBosseel_9
 0001:8038048C       aSceneBossee_10
 0001:803804B8       aSceneBossee_11
 0001:803804E4       aEnemyBosseel_p
 0001:803804F8       aMslinittransyo
 0001:8038050C       aMslappearmoved
 0001:80380520       aMslbodyscale_0
 0001:80380530       aMslviewclipfar
 0001:80380540       aMslviewcliprad
 0001:80380554       aMslbodytoheadd
 0001:8038056C       aMslbodyattackr
 0001:80380580       aMslbodyattackh
 0001:80380594       aMslbodydamager
 0001:803805A8       aMslbodydamageh
 0001:803805BC       aMslheadattackr
 0001:803805D0       aMslheadattackh
 0001:803805E4       aMslheaddamager
 0001:803805F8       aMslheaddamageh
 0001:8038060C       aMsltoothattack
 0001:80380624       aMsltoothatta_0
 0001:8038063C       aMsltoothdamage
 0001:80380654       aMsltoothdama_0
 0001:8038066C       aMslspinaccel
 0001:8038067C       aMslspinmaxspee
 0001:8038068C       aMsltoothupspee
 0001:8038069C       aMsltoothlivehe
 0001:803806B0       aMsltoothmaxhit
 0001:803806C4       aMslgentearstim
 0001:803806D4       aMslvortexattac
 0001:803806EC       aMslvortexatt_0
 0001:80380704       aMslvortexdamag
 0001:8038071C       aMslvortexdam_0
 0001:80380734       aMslvortexlivet
 0001:80380748       aMslvortexscale
 0001:8038075C       aMslvortexsca_0
 0001:8038076C       aMslmouthopenfr
 0001:80380780       aMslmouthopenin
 0001:80380798       aMslcaneatframe
 0001:803807A8       aMslbreathinpow
 0001:803807BC       aGxgngkbGugeg_6
 0001:803807E4       aSceneBosseelte
 0001:80380808       aVVivGegigmc
 0001:80380818       aSceneBossee_12
 0001:80380844       aSceneBossee_13
 0001:80380870       aSceneBossee_14
 0001:80380898       aEnemyBosseelte
 0001:803808B0       aMsltearsupspee
 0001:803808C0       aMsltearsdamage
 0001:803808D8       aMsltearslivehe
 0001:803808EC       aMsltearssplitn
 0001:80380900       aMsltearsdama_0
 0001:80380918       aMsltearsdama_1
 0001:80380930       aMsltearsattack
 0001:80380948       aMsltearsatta_0
 0001:80380960       aMsltearsdropda
 0001:8038097C       aMsltearsdrop_0
 0001:80380998       aMsltearsdropat
 0001:803809B4       aMsltearsdrop_1
 0001:803809D0       aMslhighpolydis
 0001:803809E4       aMslhitanmframe
 0001:803809F8       aMslbodyscale_1
 0001:80380A08       aMslbodyscale_2
 0001:80380A1C       aMsltearsdropsc
 0001:80380A34       aMsltearsdrop_2
 0001:80380B30       aSceneKillerBas
 0001:80380B58       aSceneKillerB_1
 0001:80380B80       aKiller_model1_
 0001:80380B94       aDownkiller_mod
 0001:80380BAC       aGggtgfgnggfF_3
 0001:80380BCC       aGggtgfgnggnT_1
 0001:80380BE8       aGggtgfgnggfF_4
 0001:80380C04       a_nosemat1
 0001:80380C10       a_eyesmat1
 0001:80380C1C       aEnemyKiller_pr
 0001:80380C30       aMslnormalflygr
 0001:80380C48       aMslnormalflysp
 0001:80380C5C       aMslchaseflygra
 0001:80380C70       aMslchasedist
 0001:80380C80       aMslforcegravit
 0001:80380C94       aMslwateraddgra
 0001:80380CA8       aMslchasetimer
 0001:80380CB8       aMslbombrange_0
 0001:80380DA8       aSceneSamboBasS
 0001:80380DC8       aSceneSamboBa_0
 0001:80380DEC       aSceneSamboBa_1
 0001:80380E0C       aSceneSamboBa_2
 0001:80380E30       aSceneSamboBa_3
 0001:80380E50       aSceneSamboBa_4
 0001:80380E74       aSceneSambohead
 0001:80380E9C       aSceneSambohe_1
 0001:80380EC8       aSceneSambohe_2
 0001:80380EF4       aSceneSambohe_3
 0001:80380F1C       aSceneSambohe_4
 0001:80380F48       aSceneSambohe_5
 0001:80380F70       aSceneSambohe_6
 0001:80380F9C       aSceneSambohe_7
 0001:80380FC8       aSceneSambohe_8
 0001:80380FF8       aSceneSambohe_9
 0001:80381020       aSceneSamboh_10
 0001:80381048       aFlower_bmd
 0001:80381060       aSambo_bmd
 0001:8038106C       aSambod_bmd
 0001:80381078       aSambohead_bmd
 0001:80381088       aGtgugGtgigpbGG
 0001:803810A4       aFlower_hit
 0001:803810B0       aFlower_fwait
 0001:803810C0       aGtgugGwgbgh
 0001:803810D0       aEnemySambohead
 0001:803810E8       aMslappeardist
 0001:803810F8       aMslhidedist_0
 0001:80381104       aMslmovedist_0
 0001:80381110       aMslmovegravity
 0001:80381120       aMsljumpsp_0
 0001:8038112C       aMsljumpprepa_0
 0001:80381140       aMslhitjumpspxz
 0001:80381150       aMslhitjumpspy
 0001:80381160       aMslhitjumpgrav
 0001:80381174       aMslhitjumpspra
 0001:80381188       aMslhitjumpsp_0
 0001:8038119C       aMsljumpangy
 0001:803811A8       aGngigtgugUkvav
 0001:803811BC       aUggoglbGv_17
 0001:803811C8       aGngigtgug
 0001:803811D4       aEnemyHanasambo
 0001:803811EC       aMslattackdist
 0001:803811FC       aMslattackinter
 0001:80381210       aMslattackingti
 0001:80381224       aMslheadattac_0
 0001:80381238       aMslheadattac_1
 0001:8038124C       aMslheaddamag_0
 0001:80381260       aMslheaddamag_1
 0001:80381274       aFlower_wait
 0001:80381280       aSceneSambofl_0
 0001:8038129C       aGtgugGkbGt
 0001:803812AC       aGrgcgubigtgigp
 0001:803812C4       aGtgigpbBigrgcg
 0001:803812DC       aGtgugGtgigpb
 0001:803812EC       aEnemySamboflow
 0001:80381304       aSceneSamboflow
 0001:8038132C       aMslleafvelocit
 0001:80381340       aMslleafveloc_0
 0001:80381354       aMslleafgravity
 0001:80381364       aMslbuddist
 0001:80381370       aMslbloomtimer
 0001:80381380       aMslcoincircler
 0001:80381390       aMslcoinvelocit
 0001:803813A4       aMslcoinveloc_0
 0001:803813B8       aMslseedshootra
 0001:803813CC       aMslseedshootin
 0001:803813E4       aMslseedgravi_1
 0001:803813F4       aMslseedspeedxz
 0001:80381404       aMslseedspeedy
 0001:803814F8       aScenePopoBasPo
 0001:80381518       aScenePopoBas_0
 0001:80381538       aScenePopoBas_1
 0001:80381558       aPopoh_bmd
 0001:80381564       aPopol_bmd
 0001:80381570       aGGGrgkgwgzgu
 0001:80381580       aUggoglbGv_18
 0001:8038158C       aEnemyPopo_prm
 0001:8038159C       aEnemyPopowater
 0001:803815B4       aEnemyPopoexpwa
 0001:803815CC       aMslmovedist_1
 0001:803815D8       aMslmovegravi_0
 0001:803815E8       aMslmovejumpsp
 0001:803815F8       aMslattackdis_0
 0001:80381608       aMslattackgra_0
 0001:8038161C       aMslattackjumps
 0001:8038162C       aMslreleasespee
 0001:8038163C       aMslflygravity
 0001:8038164C       aMslflylimittim
 0001:8038165C       aMslexplosionem
 0001:80381674       aMslwaterscalem
 0001:80381688       aMslthrowngra_2
 0001:8038169C       aMslpumprate
 0001:803816A8       aMsllevellimit
 0001:803816B8       aMslscalerate
 0001:803817A8       aSceneSleepbosshanachanBasDemohanatyan_fall_bas
 0001:803817DC       aDemohanatyan_m
 0001:8038180C       aGvgggcgubigG_2
 0001:80381820       aGGxgvgggcgug_2
 0001:80381834       aRqvVsgGxgngigG
 0001:80381CE0       aSunabashira_bmd
 0001:80381CF0       aBosshanachan2
 0001:80381D00       aBosshanachan1
 0001:80381D10       aEnemyBosshan_0
 0001:80381D2C       aEnemyBosshan_1
 0001:80381D48       aEnemyBosshan_2
 0001:80381D64       aHanabody_model
 0001:80381D78       aHanahead_model
 0001:80381D8C       aGvgggcgubigG_3
 0001:80381DA0       aGGxgvgggcgug_3
 0001:80381DB4       aGGxgngigGggu_0
 0001:80381DC8       aGGxgngigGgguvU
 0001:80381DDC       aUggoglbGv_19
 0001:80381DE8       aEnemyBosshanac
 0001:80381F00       aSceneBosshanachanHanabody_col_col
 0001:80381F28       aSceneBosshanachanHanahead_col_col
 0001:80382070       aGGxgngigGgguvS
 0001:80382084       aGGxgngigGgguvG
 0001:803827B4       aAminoko_model1
 0001:803827C8       aGagGmgrucvsfTs
 0001:803827DC       aUggoglbGv_20
 0001:803827E8       aEnemyAminoko_p
 0001:803827FC       aMslelecrange
 0001:8038280C       aMslmtxrotspeed
 0001:80382900       aSceneGatekeepe
 0001:80382930       aSceneGatekee_0
 0001:80382960       aSceneGatekee_1
 0001:8038298C       aSceneGatekee_2
 0001:803829B8       aSceneGatekee_3
 0001:803829E8       aSceneGatekee_4
 0001:80382A14       aSceneGatekee_5
 0001:80382A48       aGene_pakkun_mo
 0001:80382A60       aStamp_keeper_m
 0001:80382A9C       aGsgngsgngGlbGw
 0001:80382AB4       aSmvtGjgbgi
 0001:80382AC4       aSpomGjgbgi
 0001:80382AD4       aKgougigbgngkgG
 0001:80382AF0       aGigbgngkgGlb_2
 0001:80382B08       aGqbGgglbGpbB_0
 0001:80382B20       aGqbGgglbGpbB_1
 0001:80382B3C       aUggoglbGv_21
 0001:80382B48       aTbgkobstacle
 0001:80382B58       aSceneMapPol_10
 0001:80382B7C       aQ_kepper_dummy
 0001:80382B94       aUkgqgbgg
 0001:80382BA0       aEnemyGatekeepe
 0001:80382BB8       aMsldivetimer
 0001:80382BC8       aMslloop2dive
 0001:80382BD8       aMsllaunchtimer
 0001:80382BF0       aMsllaunchtim_0
 0001:80382C08       aSceneGatekee_6
 0001:80382C30       aSceneGatekee_7
 0001:80382C5C       aSceneGatekee_8
 0001:80382C84       aSceneGatekee_9
 0001:80382CB0       aSceneGateke_10
 0001:80382CDC       aSceneGateke_11
 0001:80382D08       aSceneGateke_12
 0001:80383068       aGene_egg_model
 0001:80383094       aEnemyEgggen_pr
 0001:803831A0       aGene_orange_mo
 0001:80383558       aDefault_bmd_6
 0001:80383564       aGggtgfgnggug
 0001:80383574       aEnemyMovefiree
 0001:8038359C       aGbgvgkvkslvsvVV_6
 0001:803835B0       aMactormtxcalctype_basicGngigvgbgngxgpbGlvnvm_7
 0001:803835E0       aMactormtxcalctype_softimageGngigvgbgngxgpbGlvnveve_8
 0001:80383618       aMactormtxcalctype_motionblendGvbGvgzgugugmgugh_7
 0001:8038364C       aMactormtxcalctype_userGjbGubTsl_8
 0001:803836B0       tevColorData2$2784
 0001:803836F0       aHauntleg_bmd
 0001:80383700       aGngugggigugwgf
 0001:80383714       aUggoglbGv_22
 0001:80383720       aGngugggmgbgo
 0001:80383730       aEnemyHauntleg_
 0001:80383828       aWire_trap_bmd
 0001:803839C8       aSceneBosshanac
 0001:803839F4       aSceneBosshan_0
 0001:80383A24       aSceneBosshan_1
 0001:80383A54       aSceneBosshan_2
 0001:80383A84       aSceneBosshan_3
 0001:80383AB4       aSceneBosshan_4
 0001:80383AE8       aSceneBosshan_5
 0001:80383B18       aSceneBosshan_6
 0001:80383B4C       aSceneBosshan_7
 0001:80383B7C       aSceneBosshan_8
 0001:80383BA8       aSceneBosshan_9
 0001:80383BD4       aSceneBossha_10
 0001:80383C00       aSceneBossha_11
 0001:80383C2C       aSceneBossha_12
 0001:80383C64       aSceneBossha_13
 0001:80383C90       aSceneBossha_14
 0001:80383CC0       aSceneBossha_15
 0001:80383DD0       aRocket_bmd
 0001:80383DDC       aGngpgbgg
 0001:80383DE8       aEnemyRocket_pr
 0001:80383DFC       aMslreleasesp_0
 0001:80383E0C       aMslflygravit_1
 0001:80383E1C       aMslflylimitt_0
 0001:80383E2C       aEnemyRocketexp
 0001:80383F28       aSceneKazekunBa
 0001:80383F50       aSceneKazekun_0
 0001:80383F78       aSceneKazekun_1
 0001:80383FA0       aSceneKazekun_2
 0001:80383FC4       aKazekun_bmd
 0001:80383FE8       aKazekun_hit
 0001:80383FF4       aKazekun_vanish
 0001:80384004       aKazekun_attack
 0001:80384014       aKazekun_wait
 0001:80384024       aKazekun_appear
 0001:80384034       aEnemyKazekun_p
 0001:80384048       aMappeardist
 0001:80384054       aMarounddist
 0001:80384060       aMaroundspeed
 0001:80384070       aMaroundtime
 0001:8038407C       aMattackspeed
 0001:8038408C       aMairfric_0
 0001:80384098       aMresettime
 0001:803840A4       aMresettimehitt
 0001:803840B8       aMposetime
 0001:803840C4       aMdicidetiming
 0001:803840D4       aMturnoffsety
 0001:803840E4       aMlostoffsetyup
 0001:803840F4       aMlostoffsetydo
 0001:80384108       aMposespeed
 0001:80384114       aMposeomegarate
 0001:80384124       aSceneKazekunJp
 0001:8038414C       aSceneKazekun_3
 0001:80384170       aSceneKazekun_4
 0001:80384420       aSceneMantaJpaM
 0001:80384444       aSceneMantaJp_1
 0001:80384468       aSceneMantaJp_2
 0001:8038448C       aSceneMantaJp_3
 0001:803844B0       aSceneMantaJp_4
 0001:803844D4       aSceneMantaJp_0
 0001:803844F8       aSceneMantaJp_5
 0001:8038451C       aSceneMantaJp_6
 0001:80384540       aSceneMantaJp_7
 0001:80384564       aSceneMantaJp_8
 0001:80384588       aSceneMantaJp_9
 0001:803845AC       aSceneMantaJ_10
 0001:803845D0       aSceneMantaJ_11
 0001:803845F4       aSceneMantaJ_12
 0001:80384618       aSceneMantaJ_13
 0001:8038463C       aManta_bmd
 0001:80384674       aMslpolluteradi
 0001:80384688       aMsldamageeffec
 0001:8038469C       aMslappeardemoi
 0001:803846B4       aMslappeardemow
 0001:803846CC       aMslmantared
 0001:803846D8       aMslmantagreen
 0001:803846E8       aMslmantablue
 0001:803846F8       aMslmantaalpha
 0001:80384708       aMslangrymantar
 0001:8038471C       aMslangrymantag
 0001:80384730       aMslangrymantab
 0001:80384744       aMslangrymantaa
 0001:80384758       aMslattractorpo
 0001:8038476C       aMslpusherpower
 0001:8038477C       aMslescapelookp
 0001:80384790       aMslescapelooke
 0001:803847A8       aMslescaperegio
 0001:803847B8       aGGugTIGrgkgwgz
 0001:803847D0       aGigugwgfgngg_0
 0001:803847E8       aGGxgGug
 0001:803847F4       aPalmougiD
 0001:80384800       aEnemyBossmanta
 0001:80384818       aSirena_manta
 0001:80384828       aGcgxguggbigzge
 0001:80384840       aJnt_body_0
 0001:8038484C       aJnt_rwing2
 0001:80384858       aJnt_lwing2
 0001:80384888       aMactormtxcalctype_basicGngigvgbgngxgpbGlvnvm_4
 0001:803848B8       aMactormtxcalctype_softimageGngigvgbgngxgpbGlvnveve_5
 0001:803848F0       aMactormtxcalctype_motionblendGvbGvgzgugugmgugh_5
 0001:80384924       aMactormtxcalctype_userGjbGubTsl_9
 0001:80384948       aSceneSambohe_0
 0001:80384970       aSceneSamboh_11
 0001:8038499C       aSceneSamboh_12
 0001:803849C8       aSceneSamboh_13
 0001:803849F0       aSceneSamboh_14
 0001:80384A1C       aSceneSamboh_15
 0001:80384A44       aSceneSamboh_16
 0001:80384A70       aSceneSamboh_17
 0001:80384A9C       aSceneSamboh_18
 0001:80384ACC       aSceneSamboh_19
 0001:80384AF4       aSceneSamboh_20
 0001:80384B1C       aYumbo_bmd
 0001:80384B28       aFlower_bmd_0
 0001:80384B58       aEnemyYumbo_prm
 0001:80384B6C       aMrecovertimer_0
 0001:80384B7C       aMshootspeed_0
 0001:80384B88       aMshootanglex
 0001:80384B98       aMseedlife
 0001:80384BA4       aMseedairfric
 0001:80384BB4       aMseedgravityy
 0001:80384BC4       aSceneSamboheadFlower_blue_bmt
 0001:80384BE8       aSambohead_danc
 0001:80384BF8       aSamboseed_bmd
 0001:80384C08       aGjgugOa
 0001:80384C14       aUggoglbGv_8
 0001:80384D18       aSceneKoopajrBa
 0001:80384D40       aSceneKoopajr_1
 0001:80384D68       aSceneKoopajr_2
 0001:80384D90       aKoopajr_null
 0001:80384DA0       aKiller_null00
 0001:80384DB0       aKiller_null03
 0001:80384DC0       aKiller_null01
 0001:80384DD0       aKiller_null04
 0001:80384DE0       aKoopajr_model_
 0001:80384E0C       aSceneKoopajrJpaMs_koopajr_killer_jpa
 0001:80384E38       aLastkoopajrsub
 0001:80384E6C       aGngbgpgwgegjga
 0001:80384E88       aEnemyKoopajrsu
 0001:80384EA4       aGtgugGkgugkgag
 0001:80384EBC       aUggoglbGv_23
 0001:80384EC8       aGtgugGkgugtgng
 0001:80384EE4       aEnemyKoopajr_p
 0001:80384EF8       aGngbgpgGlbGwgg
 0001:80384F0C       aGogxgGu_3
 0001:80384F18       aGogxgGuglgib_0
 0001:80384F34       aGngbgpgwgegj_0
 0001:80384F5C       aKillertargetdi
 0001:80384F74       aKillertarget_0
 0001:80384F8C       aBottomheight
 0001:80384F9C       aAboidkoopaflam
 0001:80384FB4       aTracemarioangl
 0001:80384FC4       aMslwavephaseve
 0001:80384FDC       aMslwaveamplitu
 0001:80384FF0       aMslwaveampli_0
 0001:8038500C       aMslwaveampli_1
 0001:80385020       aMslswingphasev
 0001:80385038       aMslswingamplit
 0001:80385050       aMslswingampl_0
 0001:80385068       aMslroundanglev
 0001:80385080       aMslrounddistan
 0001:80385094       aMslacceleratio
 0001:803850A4       aMslrotationspe
 0001:803850B8       aMslspeedmax
 0001:803850C4       aMslkoopajrsubm
 0001:803850E0       aMsldamagerad_2
 0001:803850F0       aMsldamagehei_3
 0001:80385100       aShinekillerpro
 0001:80385118       aShinekillerp_0
 0001:80385130       aMslkillerint_1
 0001:80385148       aMslkillerint_2
 0001:8038515C       aMsllaunchkille
 0001:80385174       aMslkoopajrscal
 0001:80385184       aMslfastlaunchd
 0001:8038519C       aMsldamageperio
 0001:803851AC       aMsllaunchkil_0
 0001:803851C4       aMsllaunchkil_1
 0001:803852C0       aSceneKumokunBa
 0001:803852E4       aSceneKumokun_1
 0001:80385310       aSceneKumokun_2
 0001:80385338       aSceneKumokun_3
 0001:8038535C       aSceneKumokun_4
 0001:80385384       aSceneKumokun_5
 0001:803853AC       aSceneKumokun_6
 0001:803853D4       aSceneKumokun_7
 0001:803853FC       aSceneKumokun_8
 0001:80385424       aSceneKumokun_9
 0001:8038544C       aSceneKumoku_10
 0001:80385470       aSceneKumokun_0
 0001:80385494       aSceneKumoku_11
 0001:803854C0       aSceneKumoku_12
 0001:803854EC       aSceneKumoku_13
 0001:80385514       aSceneKumoku_14
 0001:8038553C       aSceneKumoku_15
 0001:80385564       aSceneKumoku_16
 0001:8038558C       aSceneKumoku_17
 0001:803855B4       aSceneKumoku_18
 0001:803855DC       aSceneKumoku_19
 0001:80385608       aSceneKumoku_20
 0001:8038562C       aKumo_model1_bm
 0001:80385654       aKumo_hit_start
 0001:80385664       aKumo_flying1_l
 0001:80385678       aKumo_hit_end
 0001:80385688       aKumo_hit_loop
 0001:80385698       aKumo_wait1
 0001:803856A4       aKumo_turn1_loo
 0001:803856B4       aKumo_turn1_sta
 0001:803856C8       aKumo_turn1_end
 0001:803856D8       aKumo_run1_end
 0001:803856E8       aKumo_run1_loop
 0001:803856F8       aKumo_run1_star
 0001:80385708       aEnemyKumokun_p
 0001:8038571C       aMtorquey
 0001:80385728       aMmarchspeed_1
 0001:80385734       aMattackspeed_0
 0001:80385744       aMmarchtimer
 0001:80385750       aMwaittimer
 0001:8038575C       aMsearchrange_0
 0001:8038576C       aMflyspeed
 0001:80385778       aKumo_down1
 0001:80385784       aKumo_flyingdow
 0001:80385890       aSceneKoopaBasK
 0001:803858B0       aSceneKoopaBa_0
 0001:803858D0       aSceneKoopaBa_1
 0001:803858F4       aSceneKoopaBa_2
 0001:8038591C       aSceneKoopaBa_3
 0001:80385944       aSceneKoopaBa_4
 0001:80385968       aSceneKoopaBa_5
 0001:8038598C       aSceneKoopaBa_6
 0001:803859B0       aSceneKoopaBa_7
 0001:803859D4       aSceneKoopaBa_8
 0001:803859F8       aSceneKoopaBa_9
 0001:80385A1C       aSceneKoopaB_10
 0001:80385A3C       aSceneKoopaB_11
 0001:80385A60       aKoopa_model_bm
 0001:80385D48       aGogxgGu
 0001:80385D54       aGngbgpvUfvnik
 0001:80385D64       aGngbgpvOs
 0001:80385D70       aGngbgpvUk
 0001:80385D7C       aGngbgpvS
 0001:80385D88       aUggoglbGv_9
 0001:80385E78       aSceneToriBasTo
 0001:80385E98       aSceneToriBas_0
 0001:80385EB8       aSceneToriBas_1
 0001:80385EDC       aSceneToriBas_2
 0001:80385EFC       aSceneToriBas_3
 0001:80385F2C       aTori_bmd
 0001:80385F50       aTori_back
 0001:80385F5C       aTori_wait
 0001:80385F68       aTori_hit
 0001:80385F74       aNull_osen
 0001:80385F80       aEnemyKukku_prm
 0001:80385F94       aMmarchspeed_2
 0001:80385FA0       aMturnspeed_0
 0001:80385FAC       aMwaterpowery_0
 0001:80385FBC       aMshootspeed
 0001:80385FC8       aMshootinterval
 0001:80385FD8       aMsearchrange_1
 0001:80385FE8       aMhabatakitimer
 0001:80385FF8       aMairfric_1
 0001:80386004       aMuppervelocity
 0001:80386014       aMdropspeed
 0001:80386020       aMdropanglex
 0001:8038602C       aTori_down
 0001:80386038       aSceneToriJpaMs
 0001:80386058       aSceneToriJpa_0
 0001:8038607C       aTorifun_bmd
 0001:80386088       aGngbgnl
 0001:80386094       aMushroom1upr
 0001:803860A4       aUggoglbGv_24
 0001:803860B0       aSceneMapPol_11
 0001:803860D4       aK_name_dummy_0
 0001:8038626C       aAmenbo_model1_
 0001:80386298       aAmenbo_hit1_en
 0001:803862A8       aAmenbo_hit1_lo
 0001:803862BC       aAmenbo_hit1_st
 0001:803862D0       aAmenbo_wait1_s
 0001:803862E4       aAmenbo_wait1_l
 0001:803862F8       aAmenbo_wait1_e
 0001:8038630C       aAmenbo_run1
 0001:80386318       aEnemyAmenbo_pr
 0001:8038632C       aMattackspeed_1
 0001:8038633C       aMwaterfric
 0001:80386348       aMepsilon
 0001:80386354       aMisnotsearchti
 0001:8038636C       aMsearchrange_2
 0001:8038637C       aMsearchheigh_1
 0001:8038638C       aMterritoryrang
 0001:8038639C       aMhitwatertimer
 0001:803863AC       aMpreattacktime
 0001:803863BC       aSceneAmenboJpa
 0001:803863E0       aSceneAmenboCol
 0001:80386538       aAhiru_peach_bm
 0001:80386590       aGogxgGu_0
 0001:80386680       aSceneBathtubki
 0001:803866B8       aSceneMapMapM_8
 0001:803866DC       aBathtubkiller_
 0001:803866F8       aBathtubdownkil
 0001:80386718       aGogxgGuglgib
 0001:80386728       aMushroom1up_0
 0001:80386734       aEnemyBathtubki
 0001:80386750       aGggtgfgnggfF_5
 0001:8038676C       aGogxgGu_1
 0001:80386778       a_nosemat1_0
 0001:80386784       a_eyesmat1_0
 0001:80386790       aFastaccelerati
 0001:803867AC       aFastchaseaccel
 0001:803867C4       aFastchasespeed
 0001:803867D4       aFastinitialspe
 0001:803867E8       aFastdeadperiod
 0001:803867F8       aShineaccelerat
 0001:80386814       aShinechaseacce
 0001:8038682C       aShinechasespee
 0001:8038683C       aShineinitialsp
 0001:80386850       aShinedeadperio
 0001:80386860       aMushroomprobab
 0001:80386874       aMslcolorchan_0
 0001:8038688C       aMslaccelerat_0
 0001:803868A4       aMslchaseaccele
 0001:803868BC       aMslchasespeed
 0001:803868CC       aMslinitialspee
 0001:803868DC       aMsldeadperiod
 0001:803868EC       aMslstraightdis
 0001:80386900       aMslchaseminy
 0001:80386910       aMslchasemaxy
 0001:80386920       aMslaboiddistan
 0001:80386934       aMslaboiddist_0
 0001:80386948       aMslchasedistan
 0001:8038695C       aMslchasedist_0
 0001:80386970       aMsltramplevelo
 0001:80386984       aMslflyingspeed
 0001:80386998       aMslflyinggravi
 0001:803869AC       aMslbombrange_1
 0001:803869BC       aAboidangle
 0001:803869C8       aMslchasestraig
 0001:803869E0       aMslsmokeinterv
 0001:803869F4       aMsllaunchingpe
 0001:80386A08       aNocollisionamo
 0001:80386B00       aSceneKillerB_0
 0001:80386B28       aSceneKillerB_2
 0001:80386B50       aKiller_model_0
 0001:80386B64       aDownkiller_m_0
 0001:80386B7C       aGrbGxgBGlgib
 0001:80386B90       aEnemyCoasterki
 0001:80386BAC       aMslcoasterspee
 0001:80386BC4       aMslcoastersp_0
 0001:80386BDC       aMslbombrange_2
 0001:80386BEC       aGggtgfgnggfF_6
 0001:80386C08       a_nosemat1_1
 0001:80386C14       a_eyesmat1_1
 0001:80386D18       aSceneDebutelesaBasDebutelesa_wait_bas
 0001:80386D44       aDebutelesa_bmd
 0001:80386D6C       aDebutelesa_wai
 0001:80386D7C       aEnemyDebuteles
 0001:80386D94       aNull_yodare
 0001:80386DA0       aJnt_rhand
 0001:80386E90       aSceneTabepukuB
 0001:80386EB8       aSceneTabepuk_0
 0001:80386EE0       aSceneTabepuk_1
 0001:80386F08       aTabepuku_bmd
 0001:80386FCC       aJnt_mouth_up
 0001:80386FDC       aGGxgvgncpucvVs
 0001:80386FF0       aUggoglbGv_10
 0001:803871F8       aKoopa_model__0
 0001:803875E8       aSceneKoopajr_0
 0001:80387610       aSceneKoopajr_3
 0001:80387638       aSceneKoopajr_4
 0001:80387660       aKoopajr_mode_0
 0001:8038768C       aEnemyLimitkoop
 0001:803876A4       aGngbgpgGlbGw_0
 0001:803876B8       aGogxgGu_4
 0001:803876C4       aMslaccelerat_1
 0001:803876D4       aMslrotations_0
 0001:803876E8       aMslspeedmax_0
 0001:803876F4       aMslroundangl_0
 0001:8038770C       aMslroundradius
 0001:8038771C       aMslroundheight
 0001:8038772C       aMsldamagerad_3
 0001:8038773C       aMsldamagehei_4
 0001:8038774C       aMslkoopajrsc_0
 0001:8038775C       aMslshotdoodlep
 0001:80387770       aMsldamageper_0
 0001:80387780       aTmenuplane
 0001:80387920       aGm0Cc02x02x02x
 0001:80387954       aGm0CcFxFyShCu4
 0001:80387970       aGGbgvgoglbGv
 0001:80387980       aGrgugBGlxO
 0001:80387990       aGogxgGu_5
 0001:8038799C       aVVivGegigm
 0001:803879AC       aGsbGXp
 0001:803879B8       aStandard_1_blo
 0001:803879C8       aGame_6TimgCoin
 0001:803879E8       aCommon2dBalloo
 0001:80387A00       aCommon2dInfome
 0001:80387D74       aGtglbGcvivV
 0001:80387D84       aGtglbGcvivVa
 0001:80387D94       aGtglbGcvivVb
 0001:80387DA4       aGtglbGcvivVc
 0001:80387DB4       aSCc7f7f7fGc7f7
 0001:80387DD0       aCc7f7f7fGc7f7f
 0001:80387E04       aCcFfffff60GcFf
 0001:80387E44       aCcFfffff02xGcF
 0001:80387E84       aMessage_2_blo
 0001:80387E94       aGame_6TimgMess
 0001:80387EB4       aSceneMapMessag
 0001:80387ECC       aCommon2dSys_me
 0001:80387EE8       aMessage_board_
 0001:80387F20       aGfbGGzbGu
 0001:80387F30       aPause_1_blo
 0001:80387F3C       aCommon2dStagen
 0001:80387F58       aCommon2dScenar
 0001:80387F78       aGcgrgugBGl
 0001:80387FA8       aGm0Cc02x02x0_0
 0001:80387FCC       aGm0CcFxFyShC_0
 0001:80387FE8       aSave_end_blo
 0001:80387FF8       aSave_blo
 0001:80388004       aEndsaveTimgCoi
 0001:80388028       aGame_6TimgCo_0
 0001:80388048       aCommon2dSaveme
 0001:80388064       aGBGygbgjgeb
 0001:80388190       aGnbGhgugngbgnv
 0001:803881A4       aGnbGhgugngbg_0
 0001:803881B8       aGnbGhgugngbg_1
 0001:803881CC       aGigvgvgzgucpx
 0001:803881DC       aOptionLoadmess
 0001:803881F4       aLoad_blo
 0001:80388200       aLoad_score_blo
 0001:80388210       aTitle_1_blo
 0001:8038821C       aOptionTimgCoin
 0001:80388240       aOptionTimgLoad
 0001:8038828C       aBig_tx_1_blo
 0001:8038829C       aScenario_demo_
 0001:803882B0       aCommon2dStag_0
 0001:803882CC       aCommon2dScen_0
 0001:803886F8       aTdirector
 0001:803888F8       aDataTitle_mini
 0001:80388910       aDataWipe_gameo
 0001:80388970       aTviewobj
 0001:80388B8C       aOption_blo
 0001:80388BB8       aSubtitleRnblS
 0001:80388BCC       aStart_frame
 0001:80388BD8       aEnd_frame
 0001:80388BE4       aTviewobj_0
 0001:80388BF0       aSS_bmd
 0001:80388CF8       aTnmGvgfglkCa
 0001:80388D08       aSceneMapobjSandsteam_jpa
 0001:80388D24       aGigvgvgzgucp_0
 0001:80388D34       aGGbgvgoglbGv_2
 0001:80388D44       aGcgug_gcgmgngg
 0001:80388D5C       aFgbiiumibj
 0001:80388D68       aGcgug_gcgmgn_0
 0001:80388D7C       aSeaindirect
 0001:80388D88       aRetjgjgbgigtgb
 0001:80388D9C       aRetjgjgbgigcgu
 0001:80388DB8       aGsgugilCptnmGv
 0001:80388DD0       aLGvbGu
 0001:80388DDC       aGBGmvtvdvwgqbG
 0001:80388DF0       aMare5exgate
 0001:80388DFC       aSceneMapMapM_9
 0001:80388E20       aSceneMapMap_10
 0001:80388E44       aGcgxguggbigBGm
 0001:80388E60       aRegcgug_gcgmgn
 0001:80388E74       aSceneMapPol_12
 0001:80388E9C       aSceneMapPol_13
 0001:80388EC4       aSceneMapMap_11
 0001:80388F50       aCommonTimgWall
 0001:80389060       aSceneMapMapM_2
 0001:80389084       aSceneMapMapM_3
 0001:803890A8       aLUrtnm_0
 0001:803890B4       aGqbGgglbGpb
 0001:803890C4       aBianco0_event0
 0001:803890D4       aGvgggcgubintpu
 0001:803890EC       aGogigigcgkbBig
 0001:80389108       aCopsvlur02d
 0001:80389118       aGcgxguggbigkgr
 0001:80389234       aSceneMapMirr_0
 0001:80389254       aSceneMapMirror
 0001:80389278       aLGjgbgi
 0001:80389288       aSceneMapMap
 0001:80389298       aSceneMapMap_co
 0001:803892AC       aUnderpass
 0001:8038935C       aGbgvgkvkslvsvVV_3
 0001:80389370       aMactormtxcalctype_basicGngigvgbgngxgpbGlvnvm_1
 0001:803893A0       aMactormtxcalctype_softimageGngigvgbgngxgpbGlvnveve_2
 0001:803893D8       aMactormtxcalctype_motionblendGvbGvgzgugugmgugh_2
 0001:8038940C       aMactormtxcalctype_userGjbGubTsl_2
 0001:80389448       aSeaindirect_0
 0001:80389464       aReflectsky
 0001:80389470       aSun_mirror
 0001:8038947C       aGGbgvgoglbGv_5
 0001:8038948C       aFountain
 0001:80389498       aTopofcorona
 0001:803894A4       aSceneMapobjMs_coronasmoke_jpa
 0001:803894C8       aBiancoriver
 0001:803894D4       aSoundobjriver
 0001:803894E4       aSoundobjwaterintowater
 0001:803894FC       aBiancoairwall
 0001:8038950C       aBiaairwall
 0001:80389518       aBiancobosseffectlight
 0001:80389530       aSceneMapMapMs_wmlin_light_jpa
 0001:80389554       aBiawaterpollution
 0001:80389568       aRiccosea
 0001:80389574       aRiccoseapollutions0
 0001:80389588       aRiccoseapollutions1
 0001:8038959C       aRiccoseapollutions2
 0001:803895B0       aRiccoseapollutions3
 0001:803895C4       aRiccoseapollutions4
 0001:803895D8       aMarefalls
 0001:803895E4       aMareseapollutions0
 0001:803895F8       aMareseapollutions12
 0001:8038960C       aMareseapollutions34567
 0001:80389624       aMare5exgate_0
 0001:80389630       aMonteriver
 0001:8038963C       aIndirectobj
 0001:80389648       aTargetarrow_0
 0001:80389E08       aMs_harbor
 0001:80389E14       sound_info
 0001:80389E2C       aMapMap
 0001:80389E50       aIndirectdummy
 0001:80389E60       aCommonMapS_bmd
 0001:80389F48       aGagngBXtpx
 0001:80389F58       aGagcgegagoglbG
 0001:8038A068       aPollution00
 0001:8038A074       aPollution01
 0001:8038A080       aPollution02
 0001:8038A08C       aPollution03
 0001:8038A098       aPollution04
 0001:8038A0A4       aPollution05
 0001:8038A0B0       aPollution06
 0001:8038A0BC       aPollutiona
 0001:8038A0C8       aPollutionb
 0001:8038A0D4       aPollution07
 0001:8038A0E0       aPollution08
 0001:8038A0EC       aPollution09
 0001:8038A0F8       aPollution10
 0001:8038A104       aPollution11
 0001:8038A110       aPollution12
 0001:8038A11C       aPollution13
 0001:8038A128       aPollution14
 0001:8038A134       aPollution15
 0001:8038A140       aPollution16
 0001:8038A14C       aPollution17
 0001:8038A158       aPollution18
 0001:8038A164       aPollution19
 0001:8038A170       aSceneMapYmap_y
 0001:8038A184       aSceneMapPol_14
 0001:8038A198       aCommonMapPollu
 0001:8038A1B0       aCommonMapClean
 0001:8038A1C8       aSceneMapobjS_b
 0001:8038A1E0       aSceneMapobjS_0
 0001:8038A1F8       aGxgngkbGugeg_0
 0001:8038A210       aSceneMapMapSky
 0001:8038A320       aSceneMapMapM_4
 0001:8038A344       aSceneMapMapM_5
 0001:8038A368       aGzgeglpuvGjgbg
 0001:8038A37C       aGvgggcgubigzge
 0001:8038A398       aGzgeglpuvGvggg
 0001:8038A3B8       aSceneMapPoll_0
 0001:8038A3E0       aSceneMapPoll_1
 0001:8038A3FC       aSceneMapPoll_2
 0001:8038A418       aSceneOthersMar
 0001:8038A5F8       aGGjiopuvGfgvgj
 0001:8038A610       aUfsfpuvGfgvgjg
 0001:8038A628       aSceneMapMapBui
 0001:8038A648       aSceneMapMapM_1
 0001:8038A66C       aGGbgvgoglbGv_0
 0001:8038A67C       aGBGmxVKt
 0001:8038A68C       aMapMapBuilding
 0001:8038A788       aMapobjBathwate
 0001:8038A7A4       aMapobjBathwa_0
 0001:8038A7C4       aBathwatermanag
 0001:8038A7E4       aGogxgGu_2
 0001:8038A7F0       aGxgngkbGugeg_7
 0001:8038A808       aSceneMapMapBal
 0001:8038A820       aSceneMapMapB_1
 0001:8038A838       aSceneMapMapWat
 0001:8038A854       aSceneMapMapW_0
 0001:8038A874       aSceneMapMapW_1
 0001:8038A894       aSceneMapMapMes
 0001:8038A8AC       aGogxgGuvRe
 0001:8038A8BC       aTviewobj_1
 0001:8038A8C8       aHitactor_1
 0001:8038A8D4       aMapobjBathwa_1
 0001:8038A8F0       aPolygonr
 0001:8038A8FC       aPolygong
 0001:8038A908       aPolygonb
 0001:8038A914       aIndtexscale
 0001:8038A920       aShowscap
 0001:8038A92C       aBendsnormal
 0001:8038A938       aShowsmist
 0001:8038A944       aClearsalpha
 0001:8038A950       aDisplaysmesh
 0001:8038A960       aIndirectscale
 0001:8038A970       aScrollspan
 0001:8038A97C       aMeshtexwidth
 0001:8038A98C       aEnvmapscale
 0001:8038A998       aCapheight
 0001:8038A9A4       aMeshwidth
 0001:8038A9B0       aSuppliesdrops
 0001:8038A9C0       aBathtubgravity
 0001:8038A9D0       aIntersects
 0001:8038A9DC       aIsvisible
 0001:8038A9E8       aChecksmario
 0001:8038A9F4       aNumdrops
 0001:8038AA00       aDropradius
 0001:8038AA0C       aTexscale
 0001:8038AA18       aHitscale
 0001:8038AA24       aModelscale
 0001:8038AA30       aModelscale2
 0001:8038AA3C       aModelscaley
 0001:8038AA48       aBouncexz
 0001:8038AA54       aOvergravity
 0001:8038AA60       aLifetime
 0001:8038AA70       aBarrel_prm
 0001:8038AAA0       aMactormtxcalctype_basicGngigvgbgngxgpbGlvnvm_9
 0001:8038AAD0       aMactormtxcalctype_softimageGngigvgbgngxgpbGlvnveve_10
 0001:8038AB08       aMactormtxcalctype_motionblendGvbGvgzgugugmgugh_9
 0001:8038AB3C       aMactormtxcalctype_userGjbGubTsl_6
 0001:8038AB88       no_data_obj_hit_info
 0001:8038AB98       aTnmGigugwgfgGlbGwggb
 0001:8038ABB4       aBillboarddol_bmd
 0001:8038ABC8       aBillboardrot
 0001:8038ABD8       aBillboardrotrev
 0001:8038AC44       aBillboard_dolp
 0001:8038AC58       aGigugwgfgngggoglbGv
 0001:8038AC70       aBillboardsun_bmd
 0001:8038ACC0       aBillboard_sun
 0001:8038ACD0       aBillboardrestaurant_bmd
 0001:8038AD24       aBillboard_rest
 0001:8038AD3C       aBillboardfish_bmd
 0001:8038AD8C       aBillboard_fish
 0001:8038AD9C       aB_1
 0001:8038ADA0       aBp_0
 0001:8038ADDC       aWaterhithideob
 0001:8038ADEC       aB_2
 0001:8038ADF0       aBp_1
 0001:8038AE0C       aFruithithideob
 0001:8038AE1C       aB_3
 0001:8038AE20       aBp_2
 0001:8038AE3C       aHipdrophideobj
 0001:8038AE4C       aMonte_chair_model_bmd
 0001:8038AE78       aMonte_chair
 0001:8038AE84       aDoor_bmd
 0001:8038AE90       aDoor_open_l
 0001:8038AE9C       aSceneMapobjDoor_open_l_bas
 0001:8038AEBC       aDoor_open_r
 0001:8038AEC8       aSceneMapobjDoor_open_r_bas
 0001:8038AEE8       aDoor_kick_l
 0001:8038AEF4       aSceneMapobjDoor_kick_l_bas
 0001:8038AF14       aDoor_kick_r
 0001:8038AF20       aSceneMapobjDoor_kick_r_bas
 0001:8038B038       aDoorhotel
 0001:8038B044       aManhole_bmd
 0001:8038B094       aBasket_bmd
 0001:8038B0E8       aFruitbasket
 0001:8038B128       aBasketreverse
 0001:8038B140       aBh
 0001:8038B144       aBh_0
 0001:8038B158       aCoconutjuice
 0001:8038B1C8       aChangestage
 0001:8038B1D4       aChangestagem_0
 0001:8038B1EC       aB_4
 0001:8038B1F0       aB_5
 0001:8038B20C       aStartdemo
 0001:8038B218       aChip_shine_model1_bmd
 0001:8038B264       aChipshine
 0001:8038B270       aKoopa_jr_sign_bmd
 0001:8038B2B8       aKoopajrsignm
 0001:8038B2C8       aStar_sign
 0001:8038B2D4       aMaru_sign_bmd
 0001:8038B2F8       aSigncircle
 0001:8038B304       aBatu_sign_bmd
 0001:8038B328       aSigncross
 0001:8038B334       a3kaku_sign_bmd
 0001:8038B358       aSigntriangle
 0001:8038B388       aArrowboardlr
 0001:8038B3A0       aBa
 0001:8038B3A4       aC
 0001:8038B3B8       aArrowboardup
 0001:8038B3D0       aBa_0
 0001:8038B3D4       aC_0
 0001:8038B3E8       aArrowboarddown
 0001:8038B3F8       aWaterspraycy_0
 0001:8038B40C       aWaterspraybox
 0001:8038B41C       aObjswitch_0
 0001:8038B428       aRedcoinswitc_0
 0001:8038B440       aBh_1
 0001:8038B444       aB_6
 0001:8038B458       aGeneralhitobj
 0001:8038B468       aB_7
 0001:8038B46C       aB_8
 0001:8038B478       item_obj_hit_info
 0001:8038B488       aBottle_large
 0001:8038B498       aGagcgegagGlbGw
 0001:8038B4B0       aGagcgegagogl_0
 0001:8038B4C4       aBottle_short_0
 0001:8038B4D4       aB
 0001:8038B4D8       aB_0
 0001:8038B4F4       aWaterrecoverob
 0001:8038B504       aWatergun_item
 0001:8038B514       aNormal_nozzl_0
 0001:8038B528       aYoshi_whistle_
 0001:8038B53C       aB_9
 0001:8038B540       aB_10
 0001:8038B544       aB_11
 0001:8038B548       aB_12
 0001:8038B55C       aRocket_nozzl_0
 0001:8038B570       aBack_nozzle__0
 0001:8038B584       aBm
 0001:8038B588       aB_13
 0001:8038B58C       aBm_0
 0001:8038B590       aB_14
 0001:8038B5CC       aInvisible_coin
 0001:8038B5DC       aCoin_red_1
 0001:8038B5E8       aCoin_blue_2
 0001:8038B5F4       aGvgggcgugGlbGwggb
 0001:8038B60C       aMariocap_bmd
 0001:8038B650       aMario_cap_1
 0001:8038B65C       aCoin_bmd
 0001:8038B67C       aJoint_coin
 0001:8038B688       aEggyoshi_normal_bmd
 0001:8038B69C       aEggyoshi_wait
 0001:8038B6AC       aEggyoshi_true
 0001:8038B6BC       aEggyoshi_false
 0001:8038B6CC       aEggyoshi_broken_bmd
 0001:8038B6E0       aEggyoshi_broken
 0001:8038B7F0       aEggyoshi
 0001:8038B7FC       aEggyoshieven_0
 0001:8038B80C       aNozzlebox_bmd
 0001:8038B81C       aNozzleboxcrash_bmd
 0001:8038B830       aNozzleboxcrash
 0001:8038B840       aNozzleboxalpha_bmd
 0001:8038B8C4       aNozzlebox
 0001:8038B8D0       aMushroom1up_bmd
 0001:8038B914       aMushroom1up_1
 0001:8038B920       aMushroom1upr_0
 0001:8038B930       aMushroom1upx
 0001:8038B940       aJumpbase_bmd
 0001:8038B984       aJumpbase
 0001:8038B990       aBp_3
 0001:8038B994       aBp_4
 0001:8038B998       aBa_1
 0001:8038B99C       aB_15
 0001:8038B9F8       aFruitcoconut_1
 0001:8038BA08       aUggoglbGv_26
 0001:8038BA14       aB_16
 0001:8038BA18       aBp_5
 0001:8038BA1C       aBh_2
 0001:8038BA20       aBa_2
 0001:8038BA34       aFruitpapaya_1
 0001:8038BA40       aBa_3
 0001:8038BA44       aBp_6
 0001:8038BA48       aBh_3
 0001:8038BA4C       aBa_4
 0001:8038BA60       aFruitpine_1
 0001:8038BA6C       aFruitpine_bmd
 0001:8038BB28       aFruitcoverpine
 0001:8038BB80       aFruitdurian_1
 0001:8038BB8C       aBa_5
 0001:8038BB90       aBp_7
 0001:8038BB94       aBp_8
 0001:8038BB98       aB_17
 0001:8038BBAC       aFruitbanana
 0001:8038BBB8       aRedpepper
 0001:8038BBC4       aFence_normal
 0001:8038BBD4       aFence_half_bmd
 0001:8038BBF8       aFence3x3_0
 0001:8038BC04       aFence_revolve_outer_bmd
 0001:8038BC30       aFence_revolve
 0001:8038BC40       aCm
 0001:8038BC60       aFence_revolv_8
 0001:8038BC74       aFenceinnergree
 0001:8038BC84       aFencewaterv
 0001:8038BC90       aFencewaterh
 0001:8038BC9C       aFencewaterh_ground
 0001:8038BD20       aRailfence
 0001:8038BD2C       aBamboofence__0
 0001:8038BD48       aBamboofence__1
 0001:8038BD64       aBamboofence_rail_bmd
 0001:8038BD7C       aBamboofence_rail
 0001:8038BDB8       aBamboorailfenc
 0001:8038BDC8       aBarrel_normal_bmd
 0001:8038BDDC       aBarrel_crash_bmd
 0001:8038BDF0       aBarrel_crash
 0001:8038BE00       aSceneMapobjBarrel_crash_bas
 0001:8038BE20       aBarrel_rot
 0001:8038BE2C       aSceneMapobjBarrel_rot_bas
 0001:8038BF80       aWood_barrel
 0001:8038BF8C       aPcvsxigGlbGwggb
 0001:8038BFA0       aWood_barrel_on
 0001:8038BFD4       aBarrel_float
 0001:8038BFE4       aDrum_can_model_bmd
 0001:8038BFF8       aDrum_can_crash_model_bmd
 0001:8038C014       aDrum_can_crash
 0001:8038C080       aDrum_can
 0001:8038C08C       aDrum_can_sink
 0001:8038C190       aBarrel_oil
 0001:8038C19C       aLower_block
 0001:8038C1A8       aCenter_block
 0001:8038C1B8       aBreakable_block_bmd
 0001:8038C1CC       aBreakable_block_break_model_bmd
 0001:8038C1EC       aBreakable_block_break
 0001:8038C260       aBreakable_bloc
 0001:8038C280       aSupermario_blo
 0001:8038C294       aMove_block
 0001:8038C2A0       aFall_slow_bloc
 0001:8038C2B0       aBh_4
 0001:8038C2D0       aExpand_block
 0001:8038C2E0       aBh_5
 0001:8038C300       aSpread_block
 0001:8038C310       aWater_roll_block_bmd
 0001:8038C34C       aWater_roll_blo
 0001:8038C360       aSandblock_bmd
 0001:8038C370       aSandblock
 0001:8038C3E8       aSand_block
 0001:8038C3F4       aWater_power_li
 0001:8038C408       aWater_power_in
 0001:8038C424       aWater_power_sh
 0001:8038C438       aLean_direct_bl
 0001:8038C44C       aLean_indirect_
 0001:8038C460       aLean_block
 0001:8038C46C       aB_18
 0001:8038C48C       aSkate_block
 0001:8038C498       aSandmovecoin_bmd
 0001:8038C4AC       aSandmovecoin
 0001:8038C4D0       aMovecoin
 0001:8038C4DC       aTest_cluster_bmd
 0001:8038C504       aCluster_block
 0001:8038C514       aNormalblock
 0001:8038C540       aIceblock
 0001:8038C54C       aBrickblock_bmd
 0001:8038C55C       aBrickblockbreak_bmd
 0001:8038C570       aBrickblockbreak
 0001:8038C5BC       aBrickblock
 0001:8038C5C8       aWatermelonblock_bmd
 0001:8038C5DC       aWatermelonblockbreak_bmd
 0001:8038C5F8       aWatermelonblockbreak
 0001:8038C64C       aWatermelonbloc
 0001:8038C65C       aTelesablock_0
 0001:8038C688       aWoodblockpole
 0001:8038C698       aCh_0
 0001:8038C69C       aB_19
 0001:8038C6A0       aCh_1
 0001:8038C6A4       aB_20
 0001:8038C6B8       aJuiceblock
 0001:8038C6C4       aSuper_rock_bmd
 0001:8038C6D4       aSuper_rock_down_bmd
 0001:8038C6E8       aSuper_rock_down
 0001:8038C6F8       aSceneMapobjSuper_rock_down_bas
 0001:8038C764       aSuperhipdropbl
 0001:8038C7E4       aPalmnormal
 0001:8038C7F0       aCGGlbGwggb
 0001:8038C820       aPalmougi
 0001:8038C82C       aDA
 0001:8038C830       aD_0
 0001:8038C834       aBa_6
 0001:8038C838       aDma
 0001:8038C84C       aPalmsago
 0001:8038C878       aPalmnatume
 0001:8038C884       aPalmleaf_bmd
 0001:8038C8C8       aPalmleaf
 0001:8038C8D4       aBananatree_bmd
 0001:8038C918       aBananatree
 0001:8038C944       aFruittree
 0001:8038C970       aPlantflower
 0001:8038C97C       aFlowerorange_bmd
 0001:8038C990       aFlowerorangel_bmd
 0001:8038C9CC       aFlowerorange
 0001:8038C9DC       aFlowerpink_bmd
 0001:8038C9EC       aFlowerpinkl_bmd
 0001:8038CA24       aFlowerpink
 0001:8038CA30       aFlowerpurple_bmd
 0001:8038CA44       aFlowerpurplel_bmd
 0001:8038CA80       aFlowerpurple
 0001:8038CA90       aFlowerred_bmd
 0001:8038CAA0       aFlowerredl_bmd
 0001:8038CAD8       aFlowerred
 0001:8038CAE4       aFloweryellow_bmd
 0001:8038CAF8       aFloweryellowl_bmd
 0001:8038CB34       aFloweryellow
 0001:8038CB44       aFlowersunflower_bmd
 0001:8038CB58       aFlowersunflowerl_bmd
 0001:8038CB98       aFlowersunflowe
 0001:8038CD40       aDptlight
 0001:8038CD4C       aDptlight_sink
 0001:8038CD8C       aPolenormal
 0001:8038CD98       aSoccerball_bmd
 0001:8038CE04       aFootball
 0001:8038CE10       aSoccergoal_model_bmd
 0001:8038CE8C       aFootball_goal
 0001:8038CE9C       aBaloonball
 0001:8038CEA8       aCoconut_ball
 0001:8038CEB8       aWatermelon_bmd
 0001:8038CEC8       aWatermelon_shrink
 0001:8038CEDC       aSceneMapobjWatermelon_shrink_bas
 0001:8038CFE8       aWatermelon
 0001:8038D008       aWatermelonstat
 0001:8038D01C       aCloud_bmd
 0001:8038D028       aCloud_wait
 0001:8038D0AC       aNormallift
 0001:8038D0B8       aExrollcube_bmd
 0001:8038D108       aExrollcube
 0001:8038D114       aExkickboard_bmd
 0001:8038D164       aExkickboard
 0001:8038D170       aAllpurposeboardr_bmd
 0001:8038D224       aRailblockr
 0001:8038D230       aRailblocky
 0001:8038D23C       aRailblockb
 0001:8038D248       aRollblockr
 0001:8038D254       aRollblocky
 0001:8038D260       aRollblockb
 0001:8038D26C       aUmaibou_bmd
 0001:8038D2F0       aKamaboko
 0001:8038D2FC       aGetagreen_bmd
 0001:8038D320       aGetaorange_bmd
 0001:8038D3E8       aHikidashi
 0001:8038D3F4       aCastella_bmd
 0001:8038D438       aCastella
 0001:8038D444       aYoshiblock_bmd
 0001:8038D488       aYoshiblock
 0001:8038D494       aWoodblocktrian
 0001:8038D4A8       aWoodblockpyram
 0001:8038D4BC       aWoodblocklong
 0001:8038D4CC       aWoodblocklarge
 0001:8038D4DC       aWoodblockcone
 0001:8038D4EC       aWoodblockl
 0001:8038D4F8       aWoodblockbridg
 0001:8038D508       aWoodblockcube
 0001:8038D518       aB_21
 0001:8038D51C       aB_22
 0001:8038D520       aCc_0
 0001:8038D524       aBh_6
 0001:8038D538       aNormalvariant0
 0001:8038D548       aB_23
 0001:8038D54C       aB_24
 0001:8038D550       aCc_1
 0001:8038D554       aBh_7
 0001:8038D568       aNormalvariant1
 0001:8038D578       aB_25
 0001:8038D57C       aB_26
 0001:8038D580       aCc_2
 0001:8038D584       aBh_8
 0001:8038D598       aNormalvariant2
 0001:8038D5A8       aB_27
 0001:8038D5AC       aB_28
 0001:8038D5B0       aCc_3
 0001:8038D5B4       aBh_9
 0001:8038D5C8       aNormalvariant3
 0001:8038D5D8       aB_29
 0001:8038D5DC       aB_30
 0001:8038D5E0       aCc_4
 0001:8038D5E4       aBh_10
 0001:8038D5F8       aNormalvariant4
 0001:8038D608       aB_31
 0001:8038D60C       aB_32
 0001:8038D610       aCc_5
 0001:8038D614       aBh_11
 0001:8038D628       aRailvariant0
 0001:8038D638       aB_33
 0001:8038D63C       aB_34
 0001:8038D640       aCc_6
 0001:8038D644       aBh_12
 0001:8038D658       aRailvariant1
 0001:8038D668       aB_35
 0001:8038D66C       aB_36
 0001:8038D670       aCc_7
 0001:8038D674       aBh_13
 0001:8038D688       aRailvariant2
 0001:8038D698       aB_37
 0001:8038D69C       aB_38
 0001:8038D6A0       aCc_8
 0001:8038D6A4       aBh_14
 0001:8038D6B8       aRailvariant3
 0001:8038D6C8       aB_39
 0001:8038D6CC       aB_40
 0001:8038D6D0       aCc_9
 0001:8038D6D4       aBh_15
 0001:8038D6E8       aRailvariant4
 0001:8038D6F8       aB_41
 0001:8038D6FC       aB_42
 0001:8038D700       aCc_10
 0001:8038D704       aBh_16
 0001:8038D718       aRollvariant0
 0001:8038D728       aB_43
 0001:8038D72C       aB_44
 0001:8038D730       aCc_11
 0001:8038D734       aBh_17
 0001:8038D748       aRollvariant1
 0001:8038D758       aB_45
 0001:8038D75C       aB_46
 0001:8038D760       aCc_12
 0001:8038D764       aBh_18
 0001:8038D778       aRollvariant2
 0001:8038D788       aB_47
 0001:8038D78C       aB_48
 0001:8038D790       aCc_13
 0001:8038D794       aBh_19
 0001:8038D7A8       aRollvariant3
 0001:8038D7B8       aB_49
 0001:8038D7BC       aB_50
 0001:8038D7C0       aCc_14
 0001:8038D7C4       aBh_20
 0001:8038D7D8       aRollvariant4
 0001:8038D7E8       aLamptrapspike_bmd
 0001:8038D864       aLamptrapspike
 0001:8038D874       aLamptrapiron
 0001:8038D884       aAirplane
 0001:8038D890       aKibako_bmd
 0001:8038D89C       aKibako_crash_bmd
 0001:8038D8B0       aKibako_crash
 0001:8038D944       aAirportpole
 0001:8038D950       aYatai_bmd
 0001:8038D95C       aYatai_bound
 0001:8038DA44       aDptcannon
 0001:8038DA60       aKoopajrsubmari
 0001:8038DA74       aMonumentshine_bmd
 0001:8038DABC       aMonumentshine
 0001:8038DACC       aBelldolpic_bmd
 0001:8038DB10       aBelldolpic
 0001:8038DB1C       aDptweathercock_bmd
 0001:8038DB30       aDptweathercock_0
 0001:8038DB74       aDptweathercock
 0001:8038DB84       aBh_21
 0001:8038DB88       aBa_7
 0001:8038DBA4       aDptmontefence
 0001:8038DBB4       aDptcoronafence
 0001:8038DBE4       aMapsmoke
 0001:8038DBF0       aMaregate_bmd
 0001:8038DC00       aMaregate_0
 0001:8038DC20       aDemocannon
 0001:8038DC2C       aNozzledoor_bmd
 0001:8038DC3C       aNozzledoor_1
 0001:8038DC90       aNozzledoor_0
 0001:8038DC9C       aEfdokangate_bmd
 0001:8038DCAC       aEfdokangate
 0001:8038DCCC       aDokangate
 0001:8038DCD8       aE
 0001:8038DCDC       aDA_0
 0001:8038DCF8       aCrane90scene2
 0001:8038DD08       aCrane180scene1
 0001:8038DD18       aD_1
 0001:8038DD1C       aDz_1
 0001:8038DD38       aCraneupdown
 0001:8038DD64       aCranecargoup_0
 0001:8038DD78       aContainer_0
 0001:8038DD84       aC_1
 0001:8038DD88       aB_51
 0001:8038DDA4       aSubmarine_0
 0001:8038DDE0       aRiccoship
 0001:8038DE0C       aRiccopole
 0001:8038DE38       aRiccolog
 0001:8038DE44       aSurf_geso_bmd
 0001:8038DE88       aGesosurfboar_0
 0001:8038DE98       aGesosurfboar_1
 0001:8038DECC       aRiccowatermill
 0001:8038DEDC       aEA
 0001:8038DEE0       aD_2
 0001:8038DEFC       aRiccoshiplog
 0001:8038DF0C       aEA_0
 0001:8038DF10       aDA_1
 0001:8038DF2C       aRiccoshipdol
 0001:8038DF3C       aD_3
 0001:8038DF40       aDc
 0001:8038DF5C       aRiccoyachtl
 0001:8038DF68       aD_4
 0001:8038DF6C       aDa
 0001:8038DF88       aRiccoyachts
 0001:8038DF94       aDg
 0001:8038DF98       aDh
 0001:8038DFB4       aRiccoboatl
 0001:8038DFC0       aDh_0
 0001:8038DFC4       aD_5
 0001:8038DFE0       aRiccoboats
 0001:8038DFEC       aRiccobasket
 0001:8038DFF8       aRiccogangway
 0001:8038E008       aRiccoshipfish
 0001:8038E018       aRiccoshipgeso
 0001:8038E028       aRiccoswitch_0
 0001:8038E034       aRiccoswitchshi
 0001:8038E048       aRiccofencemaze
 0001:8038E058       aRiccostand
 0001:8038E064       aRiccogrille
 0001:8038E070       aRiccoarrow
 0001:8038E07C       aRiccostreetsta
 0001:8038E090       aRiccohericopte
 0001:8038E0A0       aB_52
 0001:8038E0A4       aBh_22
 0001:8038E0A8       aB_53
 0001:8038E0AC       aBh_23
 0001:8038E0E4       aSurfgesored_0
 0001:8038E0F0       aSurfgesoyell_0
 0001:8038E100       aSurfgesogree_0
 0001:8038E110       aBigwindmill_bmd
 0001:8038E154       aBigwindmill
 0001:8038E160       aWindmill_far
 0001:8038E190       aMiniwindmilll
 0001:8038E1A0       aMiniwindmills
 0001:8038E1B0       aWindmillroof
 0001:8038E1C0       aLampbianco_bmd
 0001:8038E29C       aLampbianco
 0001:8038E2B8       aRootpaku
 0001:8038E2C4       aCc_15
 0001:8038E2C8       aCc_16
 0001:8038E2E4       aBigwindmillb_0
 0001:8038E300       aB_54
 0001:8038E304       aB_55
 0001:8038E318       aPolluterpakkun
 0001:8038E328       aBiabell_bmd
 0001:8038E334       aBiabella
 0001:8038E340       aBiabellb
 0001:8038E34C       aBiabellc
 0001:8038E358       aBiabelld
 0001:8038E458       aBiawatermill_0
 0001:8038E468       aDc_0
 0001:8038E488       aBiawatermill_1
 0001:8038E4B8       aBiawatermill_2
 0001:8038E4D0       aDc_1
 0001:8038E4D4       aCz
 0001:8038E4D8       aB_56
 0001:8038E4DC       aB_57
 0001:8038E4F0       aBiaturnbridge
 0001:8038E500       aCc_17
 0001:8038E504       aC_2
 0001:8038E508       aCc_18
 0001:8038E50C       aC_3
 0001:8038E520       aLeafboat
 0001:8038E52C       aLeafboatrotten
 0001:8038E590       aLampseesaw
 0001:8038E59C       aBiabridge
 0001:8038E5A8       aSandbird_bmd
 0001:8038E5B8       aSandbird_0
 0001:8038E5D8       aSandbird
 0001:8038E604       aSandbirdbloc_0
 0001:8038E654       aSkyisland
 0001:8038E660       aSandleaf_bmd
 0001:8038E670       aSandleaf_wait
 0001:8038E680       aSandleaf_set
 0001:8038E690       aSandleaf_water
 0001:8038E6A0       aSandleaf_end
 0001:8038E734       aSandleaf_0
 0001:8038E740       aSandleafbase00_bmd
 0001:8038E768       aSandleafbase00
 0001:8038E7B0       aSandleafbase01
 0001:8038E7F8       aSandleafbase02
 0001:8038E840       aSandleafbase03
 0001:8038E95C       aSandbomb_0
 0001:8038E968       aDs
 0001:8038EA78       aSandcastle
 0001:8038EA94       aMammablockrota
 0001:8038EAB8       aSandeggnormal
 0001:8038EAC8       aSandeggbroken
 0001:8038EAD8       aShiningstone_1
 0001:8038EAE8       aB_58
 0001:8038EAEC       aCh_2
 0001:8038EB08       aMammasurfboard
 0001:8038EB1C       aMammasurfboa_0
 0001:8038EB30       aMammasurfboa_1
 0001:8038EB44       aMammasurfboa_2
 0001:8038EB58       aMammasurfboa_3
 0001:8038EB6C       aDz_2
 0001:8038EB70       aDh_1
 0001:8038EB74       aBh_24
 0001:8038EB78       aDz_3
 0001:8038EB8C       aMammayacht00_0
 0001:8038EB9C       aMammayacht01
 0001:8038EBAC       aMammayacht02
 0001:8038EBBC       aSandbombbase00_bmd
 0001:8038EBD0       aSandbombbase_up
 0001:8038EC08       aSandbombbase00
 0001:8038EC6C       aSandbombbasemu
 0001:8038ECD4       aSandbombbase_0
 0001:8038ED38       aSandbombbase_1
 0001:8038ED9C       aSandbombbase_2
 0001:8038EE00       aSandbombbase_3
 0001:8038EE64       aSandbombbasefo
 0001:8038EEC8       aSandbombbaseha
 0001:8038EF2C       aSandbombbase_4
 0001:8038EF70       aGoalwatermelon
 0001:8038EF80       aTeethofjuicer_bmd
 0001:8038EF94       aTeethofjuicer_0
 0001:8038EFD8       aTeethofjuicer
 0001:8038EFE8       aSandeggrepair
 0001:8038EFF8       aMerry_bmd
 0001:8038F058       aMerry_egg_0
 0001:8038F084       aMerry_pole_0
 0001:8038F090       aFerriswheel_bmd
 0001:8038F0A0       aFerriswheel_1
 0001:8038F0E0       aFerriswheel_0
 0001:8038F0EC       aFerrisgondol_0
 0001:8038F14C       aFerrislod
 0001:8038F158       aDva
 0001:8038F178       aPinnadoor
 0001:8038F184       aPinnadooropen
 0001:8038F194       aSirenagate
 0001:8038F1A0       aBalloonkoopajr_bmd
 0001:8038F1B4       aBalloonkoopajr_wait
 0001:8038F224       aBalloonkoopajr
 0001:8038F234       aShellcup_bmd
 0001:8038F244       aShellcup_0
 0001:8038F294       aShellcup
 0001:8038F2A0       aGateshell_bmd
 0001:8038F2B0       aGateshell_0
 0001:8038F2D0       aGateshell
 0001:8038F2DC       aPinnaboard_bmd
 0001:8038F32C       aPinnahanging_0
 0001:8038F344       aGatemanta_bmd
 0001:8038F354       aGatemanta_1
 0001:8038F374       aGatemanta_0
 0001:8038F380       aPinnasunflower
 0001:8038F390       aAmiking_model1_bmd
 0001:8038F3F8       aCasinorulet
 0001:8038F404       aRulet00_bmd
 0001:8038F444       aSrotdram
 0001:8038F450       aSrotrulet
 0001:8038F4DC       aSakucasino
 0001:8038F4E8       aBoss_wall_bmd
 0001:8038F50C       aSirenabosswall
 0001:8038F51C       aCasino_lighting_bmd
 0001:8038F530       aCasino_lighting
 0001:8038F554       aSirenacasinoro
 0001:8038F568       aGlassbreak_bmd
 0001:8038F578       aGlassbreak
 0001:8038F6F0       aChestrevolve
 0001:8038F748       aPosterteresa
 0001:8038F758       aPictureteresa_bmd
 0001:8038F76C       aPictureteresa_0
 0001:8038F7B0       aPictureteresa
 0001:8038F7C0       aPanelbreak_bmd
 0001:8038F7D0       aPanelbreak
 0001:8038F8DC       aPanelrevolve
 0001:8038F8EC       aSirenablockbre
 0001:8038F900       aSirenashop
 0001:8038F90C       aSimihotel
 0001:8038F918       aCogwheel_wheel_bmd
 0001:8038F970       aCogwheel
 0001:8038F97C       aCh_3
 0001:8038F980       aCh_4
 0001:8038F99C       aCogwheel_pla_0
 0001:8038F9AC       aCc_19
 0001:8038F9B0       aCc_20
 0001:8038F9B4       aCz_0
 0001:8038F9CC       aCogwheel_pot_0
 0001:8038FA1C       aStoprock
 0001:8038FA28       aCh_5
 0001:8038FA2C       aCh_6
 0001:8038FA30       aCh_7
 0001:8038FA34       aCh_8
 0001:8038FA48       aElasticcode
 0001:8038FA54       aMoyasi_bmd
 0001:8038FA60       aMoyasi_wait
 0001:8038FA6C       aMoyasi_grow10
 0001:8038FAC4       aWirebellpurple
 0001:8038FAD4       aMuddyboat_bmd
 0001:8038FAE4       aMuddyboat_0
 0001:8038FAF0       aSceneMapobjMuddyboat_bas
 0001:8038FB68       aMuddyboat
 0001:8038FB74       aPuncher_model1_bmd
 0001:8038FB88       aPuncher_appear1
 0001:8038FB98       aSceneMapobjPuncher_appear1_bas
 0001:8038FCB4       aMarewaterjump_
 0001:8038FCC8       aMarewaterjump
 0001:8038FCE0       aB_59
 0001:8038FCE4       aCh_9
 0001:8038FCF8       aMareeventbumpy
 0001:8038FD2C       aExbottle
 0001:8038FD38       aCoinfish_bmd
 0001:8038FD48       aCoinfish_0
 0001:8038FD68       aCoinfish
 0001:8038FD74       aMarefall_bmd
 0001:8038FD84       aMarefall_0
 0001:8038FDA4       aMarefall
 0001:8038FDB0       aMarecork_0
 0001:8038FDBC       aNekko_bmd
 0001:8038FDFC       aMonteroot
 0001:8038FE08       aJumpkinoko_bmd
 0001:8038FE18       aJumpkinoko_bound
 0001:8038FE60       aJumpmushroom
 0001:8038FE70       aMonteflag_bmd
 0001:8038FE80       aMonteflag_wait
 0001:8038FEC4       aMontegoalflag
 0001:8038FED4       aMon_bri_bmd
 0001:8038FF14       aHangingbridg_0
 0001:8038FF28       aHangingbridge
 0001:8038FF38       aCc_21
 0001:8038FF3C       aCc_22
 0001:8038FF58       aSwingboard
 0001:8038FF64       aWatage_bmd
 0001:8038FFA4       aFluffmanager
 0001:8038FFB4       aBath_bmd
 0001:8038FFC0       aBath_overturn
 0001:803900DC       aStand_break_0
 0001:803900E8       aTurnlift_bmd
 0001:80390134       aEx1_turn_lift
 0001:80390144       aSceneMapobjZturndisk_bck
 0001:80390160       aZturndisk
 0001:8039016C       aYturnlift_bmd
 0001:803901AC       aYturnlift
 0001:803901B8       aExskytumiki
 0001:803901C4       aExskywindow
 0001:803901D0       aExskysenro
 0001:803901DC       aKugi_bmd
 0001:8039021C       aMapobjnail
 0001:80390228       aPachinkokugi_bmd
 0001:80390260       aMapobjpachinko
 0001:80390274       aFileloadblock_0
 0001:80390284       aFileloadblocka_bmd
 0001:80390298       aFileloadblockrocka_bmd
 0001:803902B0       aFileloadblocknocard_bmd
 0001:80390324       aFileloadbloc_0
 0001:80390334       aFileloadblockb_bmd
 0001:80390348       aFileloadblockrockb_bmd
 0001:8039039C       aFileloadbloc_1
 0001:803903AC       aFileloadblockc_bmd
 0001:803903C0       aFileloadblockrockc_bmd
 0001:80390414       aFileloadbloc_2
 0001:80390424       aGxgngkbGugegng
 0001:8039043C       aTnmGigugwgf
 0001:8039045C       aGbgvgkvkslvsvVV_4
 0001:80390470       aMactormtxcalctype_basicGngigvgbgngxgpbGlvnvm_2
 0001:803904A0       aMactormtxcalctype_softimageGngigvgbgngxgpbGlvnveve_3
 0001:803904D8       aMactormtxcalctype_motionblendGvbGvgzgugugmgugh_3
 0001:8039050C       aMactormtxcalctype_userGjbGubTsl_3
 0001:80390548       aMario_cap
 0001:80390554       aBottle_large_2
 0001:80390564       aBottle_short_1
 0001:80390574       aGesosurfboards
 0001:80390588       aGesosurfboard
 0001:803905A4       aGvgggcgubiSbj
 0001:803905B4       aFruitbanana_0
 0001:803905C0       aFruitdurian_2
 0001:803905CC       aFruitpapaya_2
 0001:803905D8       aFruitpine_2
 0001:803905E4       aFruitcoconut_2
 0001:803905F4       aMushroom1up_2
 0001:80390600       aMushroom1upr_1
 0001:80390610       aCMGtglbGc
 0001:80390620       aCoin_red_2
 0001:8039062C       aRGrgcgu
 0001:80390638       aCoin_blue_3
 0001:80390644       aRGrgcgu_0
 0001:80390650       aNormal_nozzle_item
 0001:80390664       aBack_nozzle_item
 0001:80390678       aRocket_nozzle_item
 0001:8039068C       aYoshi_whistle_item
 0001:803906A0       aBreakable_block
 0001:803906B0       aI
 0001:803906C0       aNormalblock_0
 0001:803906CC       aTnmGigugwgfkut
 0001:803906E0       aJuiceblock_0
 0001:803906EC       aGwgebGxgugngbgn
 0001:80390700       aTelesablock_1
 0001:8039070C       aGegmgtgugngbgn
 0001:8039071C       aLean_block_0
 0001:80390728       aMxvngugngbgn
 0001:80390738       aCrane_cargo
 0001:80390744       aGngmbGurVI
 0001:80390754       aCranecargoupdown
 0001:80390768       aSandbirdblock_0
 0001:80390778       aJoint_coin_0
 0001:80390784       aSand_bird_test
 0001:80390794       aGagcgega
 0001:803907A0       aFence_revolve_inner
 0001:803907B4       aGtgfgugxursd
 0001:803907C4       aVpvtvoglgmgr
 0001:803907D4       aMushroom1upx_0
 0001:803907E4       aMaregate_1
 0001:803907F0       aBigwindmillblock
 0001:80390804       aXcoVSf
 0001:80390810       aSandleaf_1
 0001:8039081C       aVVVtvVIs
 0001:8039082C       aSandbomb_1
 0001:80390838       aVVVtvFTe
 0001:80390848       aFerrisgondola_0
 0001:80390858       aKCcoGsgughgi
 0001:80390868       aMerry_pole_1
 0001:80390874       aGbgkbGsbGigughcpgBGl
 0001:80390890       aGatemanta_2
 0001:8039089C       aMerry_egg_1
 0001:803908A8       aGbgkbGsbGigughcpvVV
 0001:803908C4       aChangestage_0
 0001:803908D0       aGxgebGwrVssVj
 0001:803908E4       aChangestagemerrygoround
 0001:803908FC       aGxgebGwrVssVjbigbgkbGsbGigughcpbj
 0001:80390924       aCogwheel_plate_0
 0001:80390934       aCogwheel_pot_1
 0001:80390944       aUvfigGbgg
 0001:80390950       aHangingbridgeboard
 0001:80390964       aVVslVF
 0001:80390970       aPinnahangingbridgeboard
 0001:80390988       aBamboofence_revolve_inner
 0001:803909A4       aTGtgfgugxursd
 0001:803909B4       aCommonMap
 0001:803909C0       aDrawbufStaticmapobjSunopa
 0001:803909DC       aDrawbufStaticmapobjSunxlu
 0001:803909F8       aDrawbufStaticmapobjShadowopa
 0001:80390A18       aDrawbufStaticmapobjShadowxlu
 0001:80390A38       aDrawbufAfterindirectOpa
 0001:80390A54       aDrawbufAfterindirectXlu
 0001:80390A70       aSceneMapMapSky_bmt
 0001:80390A88       aSceneMapobjNozzleitem_bmt
 0001:80390AA8       aSceneMapobjNozzlebox_bmt
 0001:80390AC4       aSceneMapobjFlower_bmt
 0001:80390AE0       aSceneMapobjArrowboard_bmt
 0001:80390B00       aSceneMapobjKibako_bmt
 0001:80390B1C       aSceneMapobjBarrel_bmt
 0001:80390B38       aSceneMapobjBrickblock_bmt
 0001:80390B58       aSceneMapobjWatermelonblock_bmt
 0001:80390B7C       aSceneMapobjBianco_bmt
 0001:80390B98       aSceneMapobjLeafboat_bmt
 0001:80390BB4       aSceneMapobjRiccoship_bmt
 0001:80390BD0       aSceneMapobjSurfgeso_bmd
 0001:80390BEC       aSceneMapobjSandbombbase_bmt
 0001:80390C0C       aSceneMapobjMirror_bmt
 0001:80390C28       aSceneMapobjMon_bri_rope_bti
 0001:80390C48       aSceneMapobjCogwheel_rope_bti
 0001:80390C68       aGggtgfgnggre_5
 0001:80390C84       aSceneMapMapB_0
 0001:80390D94       aNormal_nozzle_
 0001:80390DA8       aRocket_nozzle_
 0001:80390DBC       aBack_nozzle_it
 0001:80390DD0       aEggyoshievent
 0001:80390DE0       aSceneMapobjEgg
 0001:80390E08       aEggyoshi_fukid
 0001:80390E20       aEggyoshi_fuk_0
 0001:80390E34       aGigbgvbVCsbiie
 0001:80390E50       aGvgggcgubigGji
 0001:80390E68       aShine_empty_bm
 0001:80390E78       aShine_bmd
 0001:80390E84       aShine_float
 0001:80390E90       aShine_empty_de
 0001:80390EB0       aShine_demo_shi
 0001:80390EC8       aShine_empty__0
 0001:80390EE4       aShine_demo_s_0
 0001:80390EFC       aGvgggcgubivvvl
 0001:80390F1C       aSceneMapobjMs_
 0001:80390F40       aGrgcguinl
 0001:80390F4C       aGvgggcgubivpvo
 0001:80390F6C       aGvgggcgubivp_0
 0001:80390F9C       aBottle_large_0
 0001:80390FAC       aCoin_blue
 0001:80390FB8       aCoin_red
 0001:80391018       aMactormtxcalctype_softimage
 0001:80391050       aMactormtxcalctype_motionblend
 0001:80391084       aMactormtxcalctype_user
 0001:803910C0       aRGrgcguD
 0001:803910CC       aRedcoinswitch
 0001:803910DC       aSceneMapobjM_0
 0001:80391100       aObjswitch
 0001:8039110C       aGigugwgfgxgcgb
 0001:80391128       aWaterspraycyli
 0001:8039113C       aSceneMapobjM_8
 0001:8039115C       aSceneMapobjM_9
 0001:8039117C       aGGbgvgoglbGv_1
 0001:8039118C       aSceneMapobjM_1
 0001:803911AC       aSceneMapobjMan
 0001:803912C8       aGvgugegqbGggug
 0001:803912E0       aSceneMapobjBri
 0001:80391300       aSceneMapobjB_0
 0001:80391320       aSceneMapobjB_1
 0001:80391340       aSceneMapobjIce
 0001:8039135C       aSceneMapobjI_0
 0001:80391378       aSceneMapobjSan
 0001:8039139C       aSceneMapobjS_1
 0001:803914B8       aBiabell0
 0001:803914C4       aBiabell1
 0001:803914D0       aBiabell2
 0001:803914DC       aGigugvgvbGBV
 0001:803914F0       aGigugvgvbGBVav
 0001:80391508       aTnmGigugwgfgbg
 0001:80391524       aBiawatermillve
 0001:8039153C       aBiaturnbridge0
 0001:8039154C       aBiaturnbridge1
 0001:8039155C       aBiawatermill01
 0001:8039156C       aBiawatermill00
 0001:8039157C       aBigwindmillblo
 0001:80391694       aCasino_lightin
 0001:803916A4       aMapobjSakucasi
 0001:803916B8       aClosetopen
 0001:803916C4       aSceneMapobjClo
 0001:803916E4       aMapobjCloset
 0001:80391720       aMapobjDonchou
 0001:80391730       aGegmgtgGlbGw_1
 0001:80391744       aGlbGmgbgggxgcg
 0001:80391758       aGigugwgfgngg_3
 0001:803918D0       aRiccoswitch
 0001:803918DC       aGtglbGcgGugngj
 0001:803918F8       aSurfgesored
 0001:80391904       aSurfgesoyellow
 0001:80391914       aSurfgesogreen
 0001:80391924       aSurfgeso_run_0
 0001:80391934       aSubmarine
 0001:80391958       aCranecargoupdo
 0001:8039196C       aCraneupdown0
 0001:8039197C       aCrane900
 0001:80391A80       aSceneMapobjShi
 0001:80391AA4       aSceneMapobjS_2
 0001:80391AC8       aSceneMapobjS_3
 0001:80391AEC       aSceneMapobjS_4
 0001:80391B20       aLUrtnm
 0001:80391B2C       aGvgggcgubiviiV
 0001:80391B48       aGxgcgjgvgggcgu
 0001:80391B60       aWatermelon_shr
 0001:80391B74       aGxgcgjgsbGlgjg
 0001:80391B88       aSceneMapMapM_6
 0001:80391BAC       aSceneMapMapM_7
 0001:80391BD0       aSandbirdblock
 0001:80391BE0       aMammayacht00
 0001:80391BF0       aSceneMapobjMam
 0001:80391C14       aSceneMapobjM_2
 0001:80391C34       aSCzrInl
 0001:80391C40       aSceneMapobjS_7
 0001:80391C60       aShiningstone_0
 0001:80391C70       aSceneMapobjS_8
 0001:80391C90       aSceneMapobjS_9
 0001:80391CB0       aSceneMapobj_10
 0001:80391CD0       aSceneMapobj_11
 0001:80391CF0       aShiningstonegr
 0001:80391D04       aShiningstonebl
 0001:80391D18       aShiningstonere
 0001:80391D28       aShiningstonewh
 0001:80391D3C       aSceneMapobjSto
 0001:80391D54       aShiningstone
 0001:80391D64       aLpcVsgGxgngigG
 0001:80391D7C       aDemohanatyan_c
 0001:80391D90       aSCzrU_ufgjgbgi
 0001:80391DA4       aVovcvovclVrgjg
 0001:80391DB8       aVovcvovclVlgjg
 0001:80391DCC       aVovcvovclVkgjg
 0001:80391DE0       aGxgebGwrSBinVP
 0001:80391DF8       aNVPsfFnvIs
 0001:80391E08       aMamma1_sandcas
 0001:80391E1C       aSandbombbasepy
 0001:80391E30       aSandbombbasesh
 0001:80391E44       aSandbombbasest
 0001:80391E58       aSandbombbasetu
 0001:80391E6C       aSceneMapobj_12
 0001:80391E88       aSandbomb
 0001:80391E94       aSandleaf
 0001:80391F98       aSceneMapobjCoa
 0001:80391FB8       aCoasterrail
 0001:80391FC4       aAmiking_flying
 0001:80391FDC       aAmiking_flyi_0
 0001:80391FF4       aGggtgfgnggre_6
 0001:80392010       aGvgggcgubikCco
 0001:80392030       aKCcoGvgggcgugj
 0001:80392048       aFerriswheel
 0001:80392054       aKCcoRPaiGjgbgi
 0001:80392068       aKCcoGGxmvtGjgb
 0001:80392080       aAmiking_sleep1
 0001:80392090       aSceneMapobjAmi
 0001:803920B4       aSceneMapobjA_0
 0001:803920D0       aGatemanta
 0001:803920DC       aSceneMapobjBal
 0001:80392100       aSceneMapobjB_2
 0001:80392124       aSceneMapobjB_3
 0001:80392148       aYoshi_warp
 0001:80392154       aMerry_egg
 0001:80392160       aMerry_pole
 0001:8039216C       aSceneMapobjMer
 0001:8039218C       aChangestagemer
 0001:803921A4       aGGbgvgoglbGv_3
 0001:803921B4       aGigugwgfgngg_1
 0001:803921CC       aMapobjShellcup
 0001:803921E0       aG_gbbGwgigugwg
 0001:803921F4       aMapobjShellc_0
 0001:8039220C       aCoin_blue_0
 0001:80392218       aViking0
 0001:80392224       aFerrisgondola
 0001:80392330       aGvgggcgubigG_4
 0001:80392344       aGGxgvgggcgug_4
 0001:80392358       aMarecork
 0001:80392364       aSceneMapobjMar
 0001:80392380       aSceneMapMap_12
 0001:803923A4       aSceneMapMap_13
 0001:803923C8       aSceneMapMap_14
 0001:803923EC       aSceneMapobjM_3
 0001:80392410       aSceneMapobjM_4
 0001:80392430       aMoyasi_wink
 0001:8039243C       aCogwheel_plate
 0001:8039244C       aCogwheel_pot
 0001:80392568       aSceneMapMapWav
 0001:80392930       aSceneMapMapSan
 0001:80392950       aSceneMapMapS_0
 0001:80392970       aSceneMapMapRoc
 0001:80392990       aSceneMapMapR_0
 0001:803929BC       aGbgvgkvkslvsvVV_5
 0001:803929D0       aMactormtxcalctype_basicGngigvgbgngxgpbGlvnvm_6
 0001:80392A00       aMactormtxcalctype_softimageGngigvgbgngxgpbGlvnveve_7
 0001:80392A38       aMactormtxcalctype_motionblendGvbGvgzgugugmgugh_10
 0001:80392A6C       aMactormtxcalctype_userGjbGubTsl_10
 0001:80392A90       aSceneMapobjWatermelon_bomb_jpa
 0001:80392AB4       aSceneMapobjWatermelon_bomb_a_jpa
 0001:80392AD8       aSceneMapobjWatermelon_bomb_b_jpa
 0001:80392AFC       aSceneMapobjWatermelon_shrink_a_jpa
 0001:80392B24       aSceneMapobjWatermelon_shrink_b_jpa
 0001:80392B4C       aWatermelon_prm
 0001:80392B5C       aGvgggcgubivi_0
 0001:80392B78       aGxgcgjbisxbj
 0001:80392B88       aGxgcgjgsbGlg_0
 0001:80392B9C       aGxgcgjgvgggc_0
 0001:80392BB4       aFruitcoconut_0
 0001:80392BC4       aFruitdurian_0
 0001:80392BD0       aFruitpapaya_0
 0001:80392BDC       aFruitpine_0
 0001:80392BE8       aGqbGgglbGpbBig
 0001:80392C18       aGvgggcgubicops
 0001:80392C30       aCopsvlgvgggcgu
 0001:80392C48       aAirportpool
 0001:80392D38       aNozzledoor
 0001:80392ED8       aSceneMapobjM_5
 0001:80392EF8       aGvgggcgubighgl
 0001:80392F1C       aGhglgsgbgnprmx
 0001:80392F38       aGvgggcgubigh_0
 0001:80392F5C       aGhglgsgbgnprge
 0001:80392F78       aGvgggcgubigvgj
 0001:80392F9C       aGvgjgegbgugggv
 0001:80392FB8       aSceneMapPoll_3
 0001:80392FE0       aSceneMapobjS_5
 0001:80392FF8       aHitactor
 0001:80393100       aCommonMapUnder
 0001:80393124       aCommonMapUnd_0
 0001:80393140       aUnderwater
 0001:8039314C       aGxgngkbGugeg_8
 0001:80393248       a05_gate01
 0001:80393254       a05_gate02rico
 0001:80393264       a05_gate03manma
 0001:80393274       a05_gate04monte
 0001:80393284       a05_gate05mare
 0001:80393294       aGatetoricco
 0001:803932A0       aGatetomamma
 0001:803932AC       aGatetomonte
 0001:803932B8       aGatetomare
 0001:803932C4       aSceneMapMapGat
 0001:803932E0       aSceneMapMapG_0
 0001:803932F4       aGGbgvgoglbGv_4
 0001:80393304       aSceneMapMapG_1
 0001:8039332C       aSceneMapMapG_2
 0001:80393354       aSceneMapMapG_3
 0001:8039337C       aSceneMapMapG_4
 0001:803933A8       aSceneMapMapG_5
 0001:803933D4       aSceneMapMapG_6
 0001:803933FC       aSceneMapMapG_7
 0001:80393428       aSceneMapMapG_8
 0001:80393450       aSceneMapMapG_9
 0001:8039347C       aSceneMapMap_15
 0001:803934A8       aSceneMapMap_16
 0001:803934D0       aSceneMapMap_17
 0001:803934FC       aSceneMapMap_18
 0001:80393524       aSceneMapMap_19
 0001:8039354C       aSceneMapMap_20
 0001:80393574       aSceneMapMap_21
 0001:8039359C       aSceneMapMap_22
 0001:803935C4       aSceneMapMap_23
 0001:80393610       aMactormtxcalctype_basicGngigvgbgngxgpbGlvnvm_3
 0001:80393640       aMactormtxcalctype_softimageGngigvgbgngxgpbGlvnveve_4
 0001:80393678       aMactormtxcalctype_motionblendGvbGvgzgugugmgugh_4
 0001:803936AC       aMactormtxcalctype_userGjbGubTsl_11
 0001:803936D0       aSceneMapPollutionH_ma_rak_bti_3
 0001:803936F4       aH_ma_rak_dummy_4
 0001:80393710       aA_31
 0001:80393714       aA_32
 0001:80393718       aA_33
 0001:8039371C       aTnmGigugwgfgbgbgzgugwggb
 0001:80393738       aGigugwgfgngggoglbGv_0
 0001:80393750       aFence_revolve_
 0001:8039376C       aFence_revolv_0
 0001:80393788       aFence_revolv_1
 0001:803937A8       aFence_revolv_2
 0001:803937C4       aFence_revolv_5
 0001:803937E0       aFence_revolv_6
 0001:803937FC       aBamboofence_re
 0001:80393818       aFence_revolv_7
 0001:8039382C       aFence_revolv_3
 0001:80393848       aFence_revolv_4
 0001:80393864       aFence3x3
 0001:80393870       aFence_normal_v
 0001:80393884       aFence_h_tool
 0001:80393894       aFence_half_v_t
 0001:803938A8       aFence_half_h_t
 0001:803938BC       aFence_normal_s
 0001:803939C8       aSceneMapMapOpt
 0001:803939E8       aFileloadblocka
 0001:803939F8       aFileloadblockb
 0001:80393A08       aFileloadblockc
 0001:80393A18       aSceneMapMap_24
 0001:80393A3C       aGnbGhgugngbg_2
 0001:80393A50       aGnbGhgugngbg_3
 0001:80393A64       aGnbGhgugngbg_4
 0001:80393A78       aFileloadblock
 0001:80393CD0       aVpvCVVavC
 0001:80393CE0       aVqvCVVavC
 0001:80393CF0       aHangingbridgeb
 0001:80393D04       aPinnahangingbr
 0001:80393D20       aGcgxguggbitnmT
 0001:80393D40       aMapobjPalmleaf
 0001:80393D58       aMapobjSleaf02d
 0001:80393E50       aSceneMapobjM_7
 0001:80393E74       aSceneMapobjC_2
 0001:80393E94       aCoinfishrail
 0001:80393EA4       aSceneMapobj_13
 0001:80393EC4       aSandbirdrail
 0001:80393ED4       aCoin_red_0
 0001:80393EE0       aBluecoin
 0001:80393EEC       aCoin_blue_1
 0001:80394148       aGogxgGuglgibGG
 0001:80394164       aStand_effect
 0001:80394174       aBath_overturn1
 0001:80394184       aKoopa_last2
 0001:80394190       aBath_overturn2
 0001:803941A0       aBath_overturn3
 0001:803941B0       aSceneMapMap_25
 0001:803941D0       aSceneMapMap_26
 0001:803941F0       aSceneMapMap_27
 0001:80394214       aSceneMapMap_28
 0001:80394238       aSceneMapMapSta
 0001:80394268       aStand_break
 0001:80394274       aSceneMapobjSta
 0001:80394658       aGvgggcgubiSbjg
 0001:80394670       aSceneMapobjWat
 0001:80394694       aSceneMapobjW_0
 0001:803946B8       aSgjgbgi_0
 0001:803946C4       aVVVCopsvlv
 0001:803946D4       aVVVCopsvlvavov
 0001:803946E8       aSceneMapobjM_6
 0001:80394940       a__root_joint__
 0001:80394AB8       aH_ma_rak_dummy_1
 0001:80394AC8       aSceneMapPollutionH_ma_rak_bti_0
 0001:80394AEC       aI_mom_mino_dummyi4
 0001:80394B00       aI_mow_mino_dummyi4
 0001:80394B14       aSceneMontemcommonI_mom_mino_rgba_bti
 0001:80394B3C       aSceneMontewcommonI_mow_mino_rgba_bti
 0001:80394B64       aGxgngkbGugegngxgGg
 0001:80394B7C       aDummy_8x8i4
 0001:80394B88       aJ_jellyfish_dummy
 0001:80394B9C       aSceneMarejellyfishJ_kurage_bti
 0001:80394BC0       aSceneMontemcommon
 0001:80394BD4       aSceneMontewcommon
 0001:80394BE8       aSceneMarem
 0001:80394BF8       aSceneMarew
 0001:80394C08       aSceneMarecommo
 0001:80394C24       aSceneMarecom_0
 0001:80394C48       aBoardnpc_bmd
 0001:80394C70       aJellyfish_a_bm
 0001:80394C80       aJellyfish_b_bm
 0001:80394C90       aJellyfish_c_bm
 0001:80394CA0       aJellyfish_d_bm
 0001:80394CB0       aJellyfish_e_bm
 0001:80394CC0       aJellyfish_f_bm
 0001:80394D24       aMom_model_bmd
 0001:80394D4C       aMoma_model_bmd
 0001:80394D74       aMomb_model_bmd
 0001:80394D9C       aMomc_model_bmd
 0001:80394DC4       aMomd_model_bmd
 0001:80394DEC       aMome_model_bmd
 0001:80394E5C       aMow_model_bmd
 0001:80394E84       aMowa_model_bmd
 0001:80394EAC       aMowb_model_bmd
 0001:80394EEC       aMarem_bmd
 0001:80394F10       aMarew_bmd
 0001:80394F34       aKinopio_body_b
 0001:80394F60       aKinoji_body_bm
 0001:80394F88       aPeach_model_bm
 0001:80394FB0       aTanuki_bmd
 0001:80394FD4       aSunflower_bmd
 0001:80394FFC       aSunflower_s_bm
 0001:80395024       aSceneMontew
 0001:80395034       aSceneMontema
 0001:80395044       aSceneMontemc
 0001:80395054       aSceneMontem
 0001:80395148       aNpcNpcmontem_p
 0001:8039515C       aNpcNpcmonteme_
 0001:80395170       aNpcNpcmontemf_
 0001:80395184       aNpcNpcmontemg_
 0001:80395198       aNpcNpcmontemh_
 0001:803951AC       aNpcNpcmontew_p
 0001:803951C0       aNpcNpcmontewc_
 0001:803951D4       aNpcNpcmarem_pr
 0001:803951E8       aNpcNpcmarema_p
 0001:803951FC       aNpcNpcmaremb_p
 0001:80395210       aNpcNpcmaremc_p
 0001:80395224       aNpcNpcmaremd_p
 0001:80395238       aNpcNpcmarew_pr
 0001:8039524C       aNpcNpcmarewa_p
 0001:80395260       aNpcNpcmarewb_p
 0001:80395274       aNpcNpckinopio_
 0001:80395288       aNpcNpckinojii_
 0001:8039529C       aNpcNpcpeach_pr
 0001:803952B0       aNpcNpcraccoond
 0001:803952C8       aNpcNpcsunflowe
 0001:803952E0       aNpcNpcsunflo_0
 0001:803952F8       aNpcNpcdummy_pr
 0001:8039530C       aNpcNpcboard_pr
 0001:80395320       aMslbodyheight
 0001:80395330       aMslcursorheigh
 0001:80395340       aMsllookatheigh
 0001:80395350       aMcircleshadows
 0001:80395364       aMsldamagerad_4
 0001:8039537C       aMslminwalkanmr
 0001:80395390       aMslmaxwalkanmr
 0001:803953A4       aMslmaxrunanmra
 0001:803953B8       aMslminmarchspe
 0001:803953CC       aMmaxmarchspeed
 0001:803953DC       aMslmaxrunspeed
 0001:803953EC       aMslrunaccel
 0001:803953F8       aMmarchaccel
 0001:80395404       aMmarchdecrease
 0001:80395414       aMwalkturnspeed
 0001:80395424       aMwaitturnspeed
 0001:80395434       aMturnanmminrat
 0001:80395444       aMturnanmmaxrat
 0001:80395454       aMturnanmrate
 0001:80395464       aMwaitanmoffdis
 0001:80395478       aMwaitanmoffd_0
 0001:8039548C       aMlodchangedist
 0001:8039549C       aMalldllockdist
 0001:803954AC       aMneckturnsearc
 0001:803954C0       aMneckturnsea_0
 0001:803954D8       aMbodyturnsearc
 0001:803954EC       aMbodyturnsea_0
 0001:80395504       aMbodyturnsea_1
 0001:8039551C       aMbodyturnsea_2
 0001:80395534       aMmadsearchdist
 0001:80395544       aMmadsearchheig
 0001:80395558       aMmadsearchdegr
 0001:8039556C       aMmadsearchawar
 0001:8039557C       aMmadturnspeed
 0001:8039558C       aMfirststatetur
 0001:803955A4       aMuturnspeed
 0001:803955B0       aMsinkspeed
 0001:803955BC       aMsinkheight
 0001:803955C8       aMpollutionmax
 0001:803955D8       aMpollutionclea
 0001:803955F0       aMneckminanglex
 0001:80395600       aMneckmaxanglex
 0001:80395610       aMneckmaxangley
 0001:80395620       aMneckanglexspe
 0001:80395634       aMneckangleyspe
 0001:80395648       aNpcNpcnormal_p
 0001:8039565C       aMslmariotalkac
 0001:80395678       aMtalkacceptdis
 0001:80395688       aMtalkaccepthei
 0001:8039569C       aMtalkacceptdeg
 0001:803956B0       aMslsittalkacce
 0001:803956C8       aMslsunflowerlt
 0001:803956E0       aMslthrowtalkac
 0001:803956F8       aMslthrowtalk_0
 0001:80395714       aMslthrowstartf
 0001:80395728       aMsltrampleshak
 0001:80395740       aMsltrampleampl
 0001:80395754       aMsltrampleve_0
 0001:80395768       aMsltrampletoma
 0001:80395780       aMslheadheightn
 0001:80395794       aMslheadheights
 0001:803957AC       aMslblownveloci
 0001:803957C0       aMgravityy
 0001:803957CC       aMmovewalkanmra
 0001:803957E4       aMstopwalkanmra
 0001:803957FC       aMstopwalkanm_0
 0001:80395814       aMmotionblendfr
 0001:80395828       aMsldanceanmoff
 0001:8039583C       aMthrowspeedxz
 0001:8039584C       aMthrowspeedy
 0001:8039585C       aMposinbetweenf
 0001:80395870       aMslgraphwander
 0001:80395888       aMslgraphwand_0
 0001:803958A0       aMslgraphwaitmi
 0001:803958B8       aMslgraphwaitma
 0001:803958D0       aMslcleaneffect
 0001:803958E4       aMslsmokerunmag
 0001:803958F8       aMslfiredecspee
 0001:80395908       aNpcNpcfarclip_
 0001:8039591C       aMslfarairport
 0001:8039592C       aMslfardolpicto
 0001:80395940       aMslfarbiancohi
 0001:80395954       aMslfarriccohar
 0001:80395968       aMslfarmammabea
 0001:8039597C       aMslfarpinnabea
 0001:80395990       aMslfarpinnapar
 0001:803959A4       aMslfarsirenabe
 0001:803959B8       aMslfarhoteldel
 0001:803959CC       aMslfarmarevill
 0001:803959E0       aMslfarmontevil
 0001:803959F4       aMslfarcoronamo
 0001:80395A0C       aMslfarothers
 0001:80395B00       aVVVavsgjgbgi0
 0001:80395B10       aVVVavsgjgbgi1
 0001:80395B20       aVVVavsgjgbgi2
 0001:80395B30       aVVVavsgjgbgi3
 0001:80395B40       aVVVavsgjgbgi4
 0001:80395B50       aVVVavs
 0001:80395B5C       aVVVavscpgvgggc
 0001:80395B70       aVVVavsgvgggcgu
 0001:80395B88       aGetaddressfrom
 0001:80395BA4       aCheckcurnerve4
 0001:80395BB8       aChecklatestner
 0001:80395BD0       aIsnpcsinkbotto
 0001:80395BE0       aIsgamemodenorm
 0001:80395BF4       a__forcestartta
 0001:80395C08       a__forcestart_0
 0001:80395C24       aConnectdummynp
 0001:80395C34       aOntalktodummyn
 0001:80395C48       aSetnpcballoonm
 0001:80395C60       aSetnpctalkforb
 0001:80395C78       aNpcdanceon
 0001:80395C84       aNpcdanceoffhap
 0001:80395C98       aResetfruitnum
 0001:80395CA8       aGetfruitnum
 0001:80395CB4       aSetfruittype
 0001:80395CC4       aFirestartdemoc
 0001:80395CD8       aIsdemomode
 0001:80395CE4       aCheckmonteclea
 0001:80395CF4       aTspcstackSta_0
 0001:80395D14       aGvgugeD
 0001:80395D20       aTspcstackStack
 0001:80395D3C       aG_gBVmvovb
 0001:80395D80       aScenePeachPeac
 0001:80395DA4       aNull_peach_cen
 0001:803974A0       aJnt_hand_l_0
 0001:803974AC       aPeach_hand1_l_bmd
 0001:803974EC       aJnt_hand_r_0
 0001:803974F8       aPeach_hand1_r_bmd
 0001:80397538       aPeach_hair_ponytail_bmd
 0001:8039757C       aPeach_parasol_bmd
 0001:803975BC       aPeach_hand2_l_bmd
 0001:803975FC       aPeach_hand2_r_bmd
 0001:80398570       aGGjioregGkgl
 0001:80398580       aGGjiooqgGkgl
 0001:80398590       aGvguge26
 0001:8039859C       aGvguge27
 0001:803985A8       a_eye_mat
 0001:803985B4       aMonte_koko
 0001:803985C0       aKoshi_null_0
 0001:803985CC       aNpcMontem
 0001:803985D8       aNpcMontew
 0001:803985E4       aNpcPeach
 0001:803988C8       aH_peach_main_d
 0001:803988DC       aH_peach_main_s
 0001:803988F0       a_starglow1
 0001:803988FC       aTsharedparts_1
 0001:80398F90       aSceneMontemgBa
 0001:80398FBC       aSceneMontemg_0
 0001:80398FE8       aSceneMontemhBasMomh_play_bas
 0001:8039900C       aSceneMontemhBasMomh_walk_play_bas
 0001:80399034       aSceneMontemhBasMomh_wet_play_bas
 0001:8039905C       aSceneMontewcommonBasMow_appear_bas
 0001:80399084       aSceneMontewcommonBasMow_dance_bas
 0001:803990AC       aSceneMontewcommonBasMow_fall_bas
 0001:803990D4       aSceneMontewcommonBasMow_happy_bas
 0001:803990FC       aSceneMontewcommonBasMow_mad_bas
 0001:80399120       aSceneMontewcommonBasMow_madloop_bas
 0001:80399148       aSceneMontewcommonBasMow_run_bas
 0001:8039916C       aSceneMontewcommonBasMow_sitwet_bas
 0001:80399194       aSceneMontewcommonBasMow_throw_bas
 0001:803991BC       aSceneMontewcommonBasMow_wait_arrow_bas
 0001:803991E8       aSceneMontewcommonBasMow_wait_yogore_bas
 0001:80399214       aSceneMontewcommonBasMow_walk_bas
 0001:8039923C       aSceneMontewcommonBasMow_wet_bas
 0001:80399260       aSceneMontewcommonBasMow_wet_a_bas
 0001:80399288       aSceneMontewcommonBasMow_wet_yogore_bas
 0001:803992B4       aSceneMontewcommonBasMow_appear_c_bas
 0001:803992E0       aSceneMontewcommonBasMow_dance_c_bas
 0001:80399308       aSceneMontewcommonBasMow_fall_c_bas
 0001:80399330       aSceneMontewcommonBasMow_happy_c_bas
 0001:80399358       aSceneMontewcommonBasMow_mad_c_bas
 0001:80399380       aSceneMontewcommonBasMow_madloop_c_bas
 0001:803993AC       aSceneMontewcommonBasMow_run_c_bas
 0001:803993D4       aSceneMontewcommonBasMow_sitwet_c_bas
 0001:80399400       aSceneMontewcommonBasMow_throw_c_bas
 0001:80399428       aSceneMontewcommonBasMow_wait_arrow_c_bas
 0001:80399458       aSceneMontewcommonBasMow_wait_yogore_c_bas
 0001:80399488       aSceneMontewcommonBasMow_walk_c_bas
 0001:803994B0       aSceneMontewcommonBasMow_wet_c_bas
 0001:803994D8       aSceneMontewcommonBasMow_wet_a_c_bas
 0001:80399500       aSceneMontewcommonBasMow_wet_yogore_c_bas
 0001:80399530       aSceneMontewcBasMowc_mad_bas
 0001:80399550       aSceneMontewcBasMowc_wet_bas
 0001:80399570       aSceneMontewcBasMowc_wet_a_bas
 0001:80399594       aSceneMaremBasMarem_appear_bas
 0001:803995B8       aSceneMaremBasMarem_dance_bas
 0001:803995DC       aSceneMaremBasMarem_fall_bas
 0001:803995FC       aSceneMaremBasMarem_happy_bas
 0001:80399620       aSceneMaremBasMarem_jump_bas
 0001:80399640       aSceneMaremBasMarem_recover_bas
 0001:80399664       aSceneMaremBasMarem_run_bas
 0001:80399684       aSceneMaremBasMarem_stand_bas
 0001:803996A8       aSceneMaremBasMarem_stand_a_bas
 0001:803996CC       aSceneMaremBasMarem_wait_yogore_bas
 0001:803996F4       aSceneMaremBasMarem_walk_bas
 0001:80399714       aSceneMaremBasMarem_wash_bas
 0001:80399734       aSceneMaremBasMarem_wet_bas
 0001:80399754       aSceneMaremBasMarem_wet_a_bas
 0001:80399778       aSceneMaremBasMarem_appear_c_bas
 0001:8039979C       aSceneMaremBasMarem_dance_c_bas
 0001:803997C0       aSceneMaremBasMarem_fall_c_bas
 0001:803997E4       aSceneMaremBasMarem_happy_c_bas
 0001:80399808       aSceneMaremBasMarem_jump_c_bas
 0001:8039982C       aSceneMaremBasMarem_recover_c_bas
 0001:80399854       aSceneMaremBasMarem_run_c_bas
 0001:80399878       aSceneMaremBasMarem_stand_c_bas
 0001:8039989C       aSceneMaremBasMarem_stand_a_c_bas
 0001:803998C4       aSceneMaremBasMarem_walk_c_bas
 0001:803998E8       aSceneMaremBasMarem_wash_c_bas
 0001:8039990C       aSceneMaremBasMarem_wet_c_bas
 0001:80399930       aSceneMaremBasMarem_wet_a_c_bas
 0001:80399954       aSceneMarembBasMaremb_wet_bas
 0001:80399978       aSceneMaremcBasMaremc_stand_bas
 0001:8039999C       aSceneMaremcBasMaremc_stand_a_bas
 0001:803999C4       aSceneMaremcBasMaremc_wet_bas
 0001:803999E8       aSceneMaremcBasMaremc_wet_a_bas
 0001:80399A0C       aSceneMaremdBas
 0001:80399A30       aSceneMaremdB_0
 0001:80399A54       aSceneMarewBasMarew_appear_bas
 0001:80399A78       aSceneMarewBasMarew_dance_bas
 0001:80399A9C       aSceneMarewBasMarew_fall_bas
 0001:80399ABC       aSceneMarewBasMarew_happy_bas
 0001:80399AE0       aSceneMarewBasMarew_recover_bas
 0001:80399B04       aSceneMarewBasMarew_run_bas
 0001:80399B24       aSceneMarewBasMarew_stand_bas
 0001:80399B48       aSceneMarewBasMarew_stand_a_bas
 0001:80399B6C       aSceneMarewBasMarew_wait_yogore_bas
 0001:80399B94       aSceneMarewBasMarew_walk_bas
 0001:80399BB4       aSceneMarewBasMarew_wash_bas
 0001:80399BD4       aSceneMarewBasMarew_wet_bas
 0001:80399BF4       aSceneMarewBasMarew_wet_a_bas
 0001:80399C18       aSceneMarewBasMarew_appear_c_bas
 0001:80399C3C       aSceneMarewBasMarew_dance_c_bas
 0001:80399C60       aSceneMarewBasMarew_fall_c_bas
 0001:80399C84       aSceneMarewBasMarew_happy_c_bas
 0001:80399CA8       aSceneMarewBasMarew_recover_c_bas
 0001:80399CD0       aSceneMarewBasMarew_run_c_bas
 0001:80399CF4       aSceneMarewBasMarew_stand_c_bas
 0001:80399D18       aSceneMarewBasMarew_stand_a_c_bas
 0001:80399D40       aSceneMarewBasMarew_walk_c_bas
 0001:80399D64       aSceneMarewBasMarew_wash_c_bas
 0001:80399D88       aSceneMarewBasMarew_wet_c_bas
 0001:80399DAC       aSceneMarewBasMarew_wet_a_c_bas
 0001:80399DD0       aSceneMarewbBasMarewbbaby_hold_bas
 0001:80399DF8       aSceneMarewbBasMarewbbaby_holdtalk_bas
 0001:80399E24       aSceneMarewbBasMarewbbaby_holdwet_bas
 0001:80399E50       aSceneMarewbBasMarewb_holdtalk_bas
 0001:80399E78       aSceneMarewbBasMarewb_holdwet_bas
 0001:80399EA0       aSceneKinopioBasKinopio_appear_bas
 0001:80399EC8       aSceneKinopioBasKinopio_fall_bas
 0001:80399EEC       aSceneKinopioBasKinopio_happy_bas
 0001:80399F14       aSceneKinopioBasKinopio_recover_bas
 0001:80399F3C       aSceneKinopioBasKinopio_run_bas
 0001:80399F60       aSceneKinopioBasKinopio_sitshake_bas
 0001:80399F88       aSceneKinopioBasKinopio_sitwet_bas
 0001:80399FB0       aSceneKinopioBasKinopio_stumble_bas
 0001:80399FD8       aSceneKinopioBasKinopio_wait_yogore_bas
 0001:8039A004       aSceneKinopioBasKinopio_walk_bas
 0001:8039A028       aSceneKinopioBasKinopio_wet_bas
 0001:8039A04C       aSceneKinopioBasKinopio_wet_a_bas
 0001:8039A074       aSceneKinopioBasKinopio_wet_yogore_bas
 0001:8039A0A0       aSceneKinojiiBasKinoji_fall_bas
 0001:8039A0C4       aSceneKinojiiBasKinoji_recover_bas
 0001:8039A0EC       aSceneKinojiiBasKinoji_sitshake_bas
 0001:8039A114       aSceneKinojiiBasKinoji_sitwet_bas
 0001:8039A13C       aSceneKinojiiBasKinoji_stumble_bas
 0001:8039A164       aSceneKinojiiBasKinoji_walk_bas
 0001:8039A188       aSceneKinojiiBasKinoji_wet_bas
 0001:8039A1AC       aSceneKinojiiBasKinoji_wet_a_bas
 0001:8039A1D0       aScenePeachBasPeach_anger_wait_bas
 0001:8039A1F8       aScenePeachBasPeach_carry_bas
 0001:8039A21C       aScenePeachBasPeach_fear_wait_bas
 0001:8039A244       aScenePeachBasPeach_parasol_wet_bas
 0001:8039A26C       aScenePeachBasPeach_recover_bas
 0001:8039A290       aScenePeachBasPeach_tired_wait_bas
 0001:8039A2B8       aScenePeachBasPeach_wet_bas
 0001:8039A2D8       aSceneRaccoondogBasTanuki_wait_a_bas
 0001:8039A300       aSceneRaccoondogBasTanuki_wait_b_bas
 0001:8039A328       aSceneRaccoondogBasTanuki_wet_bas
 0001:8039A350       aSceneSunflowerlBasSunflower_stand_bas
 0001:8039A37C       aSceneSunflowerlBasSunflower_wet_bas
 0001:8039A3A4       aSceneSunflowerlBasSunflower_wet_b_bas
 0001:8039A3D0       aSceneSunflowersBasSunflower_s_stand_bas
 0001:8039A3FC       aSceneSunflowersBasSunflower_s_wet_bas
 0001:8039A428       aSceneSunflowersBasSunflower_s_wet_b_bas
 0001:8039A59C       aYashi_jnt
 0001:8039A5A8       aKoshi_null
 0001:8039A5B4       aJnt_body
 0001:8039A5C0       aFootl_jnt
 0001:8039A5CC       aFootr_jnt
 0001:8039A5D8       aNose_jnt
 0001:8039CEB8       sAllNpcInitAnmData
 0001:8039D088       aLiveactor_cpp
 0001:8039D098       aTliveactorSMan
 0001:8039D1A0       aPushnerve
 0001:8039D1AC       aSetanmrate
 0001:8039D1B8       aTspcstackSta_1
 0001:8039D1D8       aTspcstackSta_2
 0001:8039D1F8       aDefault_sb
 0001:8039D2E8       aDefault_bmd_7
 0001:8039D310       aDefault_bmd
 0001:8039D320       aTspcinterpNull
 0001:8039D33C       aTspcinterpUnkn
 0001:8039D360       aTspcinterpUn_0
 0001:8039D384       aTspcinterpCann
 0001:8039D3AC       aTspcinterpCa_0
 0001:8039D3D0       aTspcinterpUn_1
 0001:8039D3F4       aTspcinterpCa_1
 0001:8039D424       aTspcinterpCa_2
 0001:8039D44C       aTspcstackSta_3
 0001:8039D468       aTspcstackSta_4
 0001:8039D488       aTspcinterpCa_3
 0001:8039D4B8       aTspcinterpArgu
 0001:8039D4F0       aTspcinterpInte
 0001:8039D510       aTextofsU
 0001:8039D520       aDataofsU
 0001:8039D530       aDatanumU
 0001:8039D540       aSymofsU
 0001:8039D550       aSymnumU
 0001:8039D560       aMdisplayDD
 0001:8039D574       aMprocessstackD
 0001:8039D58C       aMcontextstackD
 0001:8039D5A4       aMstoragestackD
 0001:8039D5BC       aSymbol03uSType
 0001:8039D5F0       aTspcinterpInva
 0001:8039D60C       aTspcinterpNu_0
 0001:8039D628       aTspcinterpUn_2
 0001:8039D654       aTspcinterpScri
 0001:8039D674       aTspcbinaryUnkn
 0001:8039D694       aTspcbinarySyst
 0001:8039D6BC       aTspcbinarySy_0
 0001:8039D6E0       aCommonTimgQues
 0001:8039D828       aFff
 0001:8039D844       aCommonTimgH_ma
 0001:8039D920       aGGbgvgigugwgfsCz
 0001:8039D934       aGGbgvgigugwgfie
 0001:8039D948       aSCzbigigugwgfgnggbj
 0001:8039D960       aSCzgagugrggguggbigigugwgfgnggbj
 0001:8039D984       aGcgug_gcgmgnggsCz
 0001:8039D998       aGcgug_gcgmgnggie
 0001:8039D9AC       aFff_0
 0001:8039D9B8       aLightGroup
 0001:8039D9C4       aGvgmgcgdbCpgig
 0001:8039D9D8       aGigugwgfgnggcp
 0001:8039D9F0       aGGbgvgigugwgfg
 0001:8039DA0C       aGcgug_gcgmgn_1
 0001:8039DA2C       aTlightcommon
 0001:8039DA3C       aTlightmario
 0001:8039DA4C       aAmbientGroup
 0001:8039DA94       aSMtxeffectD_pr
 0001:8039DAA8       aMposaccel
 0001:8039DAB4       aMposbrake
 0001:8039DAC0       aMposlimit
 0001:8039DACC       aMquataccel
 0001:8039DAD8       aMquatbrake
 0001:8039DAE4       aMvelscale
 0001:8039DAF0       aGxgngkbGugeg_1
 0001:8039DE9C       aNeMapPollutionH_ma_rak_bti
 0001:8039DEBC       aH_ma_rak_dummy_5
 0001:8039DECC       aGGkgicxoqinl
 0001:8039DEDC       aMarioBmdMa_cap
 0001:8039DEF4       aMarioBmdMa_c_0
 0001:8039DF0C       aMarioWatergun2
 0001:8039DF34       aMarioBmdMa_gla
 0001:8039DF50       aNull_airtube
 0001:8039DF60       aMarioMariocap
 0001:8039E090       aTree_climb
 0001:8039E09C       aTree_catch
 0001:8039E0A8       aTree_stand
 0001:8039E0B4       aTree_wait
 0001:8039E0C0       aLadder_hang_catch
 0001:8039E0D4       aDoor_openr
 0001:8039E0E0       aDoor_openl
 0001:8039E0EC       aLadder_hang_move_l
 0001:8039E100       aLadder_hang_move_r
 0001:8039E114       aRide_shell
 0001:8039E120       aLadder_hang_wait_l
 0001:8039E134       aLadder_hang_wait_r
 0001:8039E148       aHot_wait
 0001:8039E154       aRope_walk
 0001:8039E160       aRope_run
 0001:8039E16C       aRope_wait
 0001:8039E178       aRope_wtosw
 0001:8039E184       aRope_wtosw_r
 0001:8039E194       aRope_swait
 0001:8039E1A0       aRope_whg
 0001:8039E1AC       aRope_swhg
 0001:8039E1B8       aRope_hgwat
 0001:8039E1C4       aRope_return
 0001:8039E1D0       aRope_hmovr
 0001:8039E1DC       aRope_hmovl
 0001:8039E1E8       aSink_down
 0001:8039E1F4       aDoor_kick
 0001:8039E200       aHold_wait
 0001:8039E20C       aHold_back
 0001:8039E218       aHold_move_r
 0001:8039E224       aHold_move_l
 0001:8039E230       aHold_drag
 0001:8039E23C       aHold_to_hang
 0001:8039E24C       aHold_hang
 0001:8039E258       aHang_to_hold
 0001:8039E268       aHold_return
 0001:8039E274       aTurbo_dash
 0001:8039E280       aBroad_jump
 0001:8039E28C       aJump_rolling
 0001:8039E29C       aGiant_rolling
 0001:8039E2AC       aFence_catch
 0001:8039E2B8       aFence_jcatch
 0001:8039E2C8       aFence_wait
 0001:8039E2D4       aFence_move_l
 0001:8039E2E4       aFence_move_r
 0001:8039E2F4       aFence_move_up
 0001:8039E304       aFence_move_down
 0001:8039E314       aFence_punch
 0001:8039E320       aLadder_hang_kick
 0001:8039E334       aLadder_roll_up
 0001:8039E344       aLadder_roll_down
 0001:8039E358       aRide_shell_wait
 0001:8039E368       aSwim_start
 0001:8039E374       aSwim_wait
 0001:8039E380       aWait_to_swim
 0001:8039E390       aSwim_to_wait
 0001:8039E3A0       aSwim_damage
 0001:8039E3AC       aSwim_down
 0001:8039E3B8       aDemo_shine_get
 0001:8039E3C8       aDemo_gate_in
 0001:8039E3D8       aDemo_gate_out
 0001:8039E3E8       aRoll_jump
 0001:8039E3F4       aGet_fail
 0001:8039E400       aTree_move_l
 0001:8039E40C       aTree_move_r
 0001:8039E418       aMonteman_wait
 0001:8039E428       aWait_to_paddle
 0001:8039E438       aPaddle_start
 0001:8039E448       aPaddle_end
 0001:8039E454       aPaddle_to_wait
 0001:8039E464       aDamage_wait
 0001:8039E470       aThrown_end
 0001:8039E47C       aBottle_in
 0001:8039E488       aSand_fill_head
 0001:8039E498       aSand_fill_head_end
 0001:8039E4AC       aSandfill_leg
 0001:8039E4BC       aSandfill_leg_end
 0001:8039E4D0       aDamage_wait_start
 0001:8039E4E4       aSwim_dive
 0001:8039E4F0       aSwim_p_damage
 0001:8039E500       aSwim_p_down
 0001:8039E50C       aDemo_gate_out_get2
 0001:8039E520       aDemo_gate_out_appear
 0001:8039E538       aSit_wait
 0001:8039E544       aSleep_wait
 0001:8039E550       aSleep_end
 0001:8039E55C       aDive_wait
 0001:8039E568       aDive_land
 0001:8039E574       aDoor_gacha_l
 0001:8039E584       aDoor_gacha_r
 0001:8039E594       aShock_down
 0001:8039E5A0       aDemo_gate_out_appear_get
 0001:8039E5BC       aDemo_gate_out_rolling_get
 0001:8039E5D8       aDemo_gate_out_rolling
 0001:8039E5F0       aFall_down_wait
 0001:8039E600       aYo_eat_end
 0001:8039E60C       aYo_jump_fall
 0001:8039E61C       aYo_jump_end
 0001:8039E628       aYo_hold_jump
 0001:8039E638       aYo_hip_start
 0001:8039E648       aYo_hip_pose
 0001:8039E654       aYo_hip_end
 0001:8039E660       aYo_damage
 0001:8039E66C       aDemo_shine_get_yo
 0001:8039E680       aYo_slide_pose
 0001:8039E690       aYo_slide_end
 0001:8039E6A0       aSceneMapPollutionH_ma_rak_bti_4
 0001:8039E6C4       aH_ma_rak_dummy_6
 0001:8039E6D4       aMarioBtpMa_win
 0001:8039E6F0       aMarioBtpMa_bdw
 0001:8039E70C       aMarioBtpMa_bkd
 0001:8039E728       aMarioBtpMa_sdw
 0001:8039E744       aMarioBtpMa_jfd
 0001:8039E760       aMarioBtpMa_sdo
 0001:8039E77C       aMarioBtpMa_sld
 0001:8039E798       aMarioBtpMa_dgr
 0001:8039E7B4       aMarioBtpMa_hot
 0001:8039E7D4       aMarioBtpMa_fir
 0001:8039E7F4       aMarioBtpMa_fjp
 0001:8039E810       aMarioBtpMa_sho
 0001:8039E82C       aMarioBtpMa_gat
 0001:8039E84C       aMarioBtpMa_die
 0001:8039E868       aMarioBtpMa_d_w
 0001:8039E884       aMarioBtpMa_swi
 0001:8039E8A8       aMarioBtpMa_s_0
 0001:8039E8CC       aMarioBtpMa_yaw
 0001:8039E8E8       aMarioBtpMa_sit
 0001:8039E904       aMarioBtpMa_s_1
 0001:8039E924       aMarioBtpMa_s_2
 0001:8039E944       aMarioBtpMa_sle
 0001:8039E960       aMarioBtpMa_s_3
 0001:8039E980       aMarioBtpMa_s_4
 0001:8039EA0C       aGGkgiosinl
 0001:8039EA1C       aGggngbgrinl
 0001:8039EA2C       aMarioBmdMa_mdl1_bmd
 0001:8039EA44       aChn_chest_0
 0001:8039EA50       aJnt_chest_0
 0001:8039EA5C       aJnt_arm_r1_0
 0001:8039EA68       aJnt_arm_l1_0
 0001:8039EA74       aJnt_hand_r_1
 0001:8039EA80       aJnt_hand_l_1
 0001:8039EA8C       aChn_foot_r_0
 0001:8039EA98       aJnt_foot_r_1
 0001:8039EAA4       aChn_foot_l_0
 0001:8039EAB0       aJnt_foot_l_1
 0001:8039EABC       aJnt_head_1
 0001:8039EAC8       aMarioBmdMa_hnd2r_bmd
 0001:8039EAE0       aMarioBmdMa_hnd2l_bmd
 0001:8039EAF8       aMarioBmdMa_hnd3r_bmd
 0001:8039EB10       aMarioBmdMa_hnd3l_bmd
 0001:8039EB28       aMarioBmdMa_hnd4r_bmd
 0001:8039EB40       aMarioBckMa_S_bck
 0001:8039EB58       aMarioBasMa_S_bas
 0001:8039EB70       a_mat_eye_l
 0001:8039EB7C       a_mat_eye_r
 0001:8039EB88       aSceneMapMapTorocco
 0001:8039EBA0       aSceneMapMapToroccoTorocco_bmd
 0001:8039EBC4       aSceneMapMapPinna_rail
 0001:8039EBE0       aSceneMapMapPinna_railPinna_rail_bmd
 0001:8039EC0C       aSceneMapMapKoopa_rail
 0001:8039EC28       aSceneMapMapKoopa_railKoopa_rail_bmd
 0001:8039EE94       aSceneMapPoll_4
 0001:8039EEBC       aSceneMapPol_15
 0001:8039EEE4       aSceneMapPol_16
 0001:8039EF40       aMarioTimgSplas
 0001:8039EFDC       aMarioBmdYoshi_
 0001:8039EFF8       aMarioBmdYosh_0
 0001:8039F038       aMactormtxcalctype_basicGngigvgbgngxgpbGlvnvm
 0001:8039F068       aMactormtxcalctype_softimageGngigvgbgngxgpbGlvnveve_0
 0001:8039F0A0       aMactormtxcalctype_motionblendGvbGvgzgugugmgugh_0
 0001:8039F0D4       aMactormtxcalctype_userGjbGubTsl_0
 0001:8039F0F8       aSceneMapPollutionH_ma_rak_bti_1
 0001:8039F11C       aH_ma_rak_dummy_2
 0001:8039F144       aMarioWatergun2Normal_wg
 0001:8039F160       aMarioWatergun2Normal_wgNormal_wg_bmd
 0001:8039F18C       aMarioWatergun2Rocket_wg
 0001:8039F1A8       aMarioWatergun2Rocket_wgRocket_wg_bmd
 0001:8039F1D4       aMarioBmdWg_hel_diver_bmd
 0001:8039F1F0       aMarioWatergun2Hover_wg
 0001:8039F20C       aMarioWatergun2Hover_wgHover_wg_bmd
 0001:8039F234       aMarioWatergun2Dummy_wg
 0001:8039F250       aMarioWatergun2Dummy_wgDummy_wg_bmd
 0001:8039F278       aMarioWatergun2Back_wg
 0001:8039F294       aMarioWatergun2Back_wgBack_wg_bmd
 0001:8039F2BC       aWg_fepmp
 0001:8039F2C8       aWg_swpmp
 0001:8039F2D4       aWg_hgpmp
 0001:8039F2E0       aWg_house
 0001:8039F2EC       aMarioWatergun_prm
 0001:8039F300       aMrocketheight
 0001:8039F310       aMhhoverheight
 0001:8039F320       aMlanglenormal
 0001:8039F330       aMnozzleangleyspeed
 0001:8039F344       aMnozzleangleybrake
 0001:8039F358       aMnozzleangleyspeedmax
 0001:8039F370       aMhoverrotmax
 0001:8039F380       aMhoversmooth
 0001:8039F390       aMchangespeed
 0001:8039F3A0       aMarioWatergun2Body
 0001:8039F3B8       aMarioWatergun2BodyWg_mdl1_bmd
 0001:8039F3DC       aMarioGunemit_prm
 0001:8039F3F0       aJnt_g_handle
 0001:8039F400       aMarioWatergun
 0001:8039F410       aNozzle_center
 0001:8039F420       aH_watergun_main_dummy
 0001:8039F438       aNull_g_muzzle
 0001:8039F448       aNull_g_muzzle2
 0001:8039F458       aNull_g_muzzle3
 0001:8039F468       aChn_muzzle_1
 0001:8039F478       aJnt_nozzle_l
 0001:8039F488       aJnt_nozzle_r
 0001:8039F498       aChn_back_nozzle_prop
 0001:8039F4B0       aJnt_back_nozzle_neck
 0001:8039F4C8       aReusccinl
 0001:8039F4D4       aNormal_wg
 0001:8039F4E0       aMarioWatergunNozzledeform_prm
 0001:8039F504       aMarioWatergunNozzledeformbomb_prm
 0001:8039F52C       aMarioWatergunNozzletrgrocket_prm
 0001:8039F550       aHover_wg
 0001:8039F55C       aMarioWatergunNozzlediving_prm
 0001:8039F580       aDummy_wg
 0001:8039F58C       aMarioWatergunNozzleyoshimouth_prm
 0001:8039F5B4       aMarioWatergunNozzletrghover_prm
 0001:8039F5D8       aMarioWatergunNozzletrgturbo_prm
 0001:8039F5FC       aMrockettype
 0001:8039F608       aMdirtremble_0
 0001:8039F614       aMemitpow
 0001:8039F620       aMemitctrl
 0001:8039F62C       aMpowtremble_0
 0001:8039F638       aMsizetremble_0
 0001:8039F648       aMamountmax
 0001:8039F654       aMreactionpow
 0001:8039F664       aMreactiony
 0001:8039F670       aMdecrate
 0001:8039F67C       aMtriggerrate
 0001:8039F68C       aMdamageloss
 0001:8039F698       aMsuckrate
 0001:8039F6A4       aMhitradius_0
 0001:8039F6B0       aMhitheight_0
 0001:8039F6BC       aMlanglebase
 0001:8039F6C8       aMlanglesquat
 0001:8039F6D8       aMlanglemin
 0001:8039F6E4       aMlanglemax
 0001:8039F6F0       aMlanglechase
 0001:8039F700       aMsizeminpressure
 0001:8039F714       aMsizemaxpressure
 0001:8039F728       aMattackmin
 0001:8039F734       aMdirtremblemin
 0001:8039F744       aMemitpowmin
 0001:8039F750       aMsizemin
 0001:8039F75C       aMmotorpowmin
 0001:8039F76C       aMmotorpowmax
 0001:8039F77C       aMreactionpowmin
 0001:8039F78C       aMinsidepressuredec
 0001:8039F7A0       aMinsidepressuremax
 0001:8039F7B4       aMtriggertime
 0001:8039F7C4       aMsideanglemaxside
 0001:8039F7D8       aMsideanglemaxfront
 0001:8039F7EC       aMsideanglemaxback
 0001:8039F800       aMrbuttonmult
 0001:8039F810       aMemitpowscale
 0001:8039F944       aGigbgvbInl
 0001:8039F954       aGigbgvbOsinl
 0001:8039F964       aYoshiYoshi_mod
 0001:8039F97C       aNull_tongue
 0001:8039F988       aJnt_foot_l_0
 0001:8039F994       aJnt_foot_r_0
 0001:8039F9A0       aYoshiYoshi_han
 0001:8039F9BC       aYoshiYoshi_h_0
 0001:8039F9D8       aYoshiYoshi_eat
 0001:8039F9F0       aYoshiYoshi_e_0
 0001:8039FA0C       aHitactor_2
 0001:8039FA18       aJnt_mouth
 0001:8039FA24       aJnt_neck_2
 0001:8039FA30       aYoshiBasYoshi_
 0001:8039FA4C       aYoshiBasYosh_0
 0001:8039FA68       aYoshiBasYosh_1
 0001:8039FA8C       aYoshiBasYosh_2
 0001:8039FAA8       aYoshiBasYosh_3
 0001:8039FAC8       aYoshiBasYosh_4
 0001:8039FAE4       aYoshiBasYosh_5
 0001:8039FB04       aYoshiBasYosh_6
 0001:8039FB24       aYoshiBasYosh_7
 0001:8039FB44       aYoshiBasYosh_8
 0001:8039FB60       aYoshiBasYosh_9
 0001:8039FB80       aYoshiBasYos_10
 0001:8039FB9C       aYoshiBasYos_11
 0001:8039FBB8       aYoshiBasYos_12
 0001:8039FBD4       aYoshiBasYos_13
 0001:8039FBF4       aYoshiBasYos_14
 0001:8039FC14       aYoshiBasYos_15
 0001:8039FC34       aYoshiBasYos_16
 0001:8039FC50       aYoshiBasYos_17
 0001:8039FC70       aYoshiBasYos_18
 0001:8039FC8C       aYoshiBasYos_19
 0001:8039FE8C       aGbgvgkvkslvsvVV
 0001:8039FEA1       aSceneMapPollutionH_ma_rak_bti
 0001:8039FEC4       aH_ma_rak_dummy_0
 0001:8039FED4       aMarioSound_prm
 0001:8039FEE8       aMstartfallvoicespeed
 0001:8039FF00       aMarioAutodemo_prm
 0001:8039FF14       aMwarpinballsdisptime
 0001:8039FF2C       aMwarpinballstime
 0001:8039FF40       aMwarpincapturedtime
 0001:8039FF54       aMwarpintremble
 0001:8039FF64       aMwarpinvecbase
 0001:8039FF74       aMwarptranstremble
 0001:8039FF88       aMreadrotsp
 0001:8039FF94       aMdowntype
 0001:8039FFA0       aMwateremit
 0001:8039FFAC       aMminspeed
 0001:8039FFB8       aMinvincibletime
 0001:8039FFC8       aMgravity_0
 0001:8039FFD4       aMaccelcontrol
 0001:8039FFE4       aMseabrake
 0001:8039FFF0       aMseabrakey
 0001:8039FFFC       aMaccelrate
 0001:803A0008       aMwaistroll
 0001:803A0014       aMwaistpitch
 0001:803A0020       aMwaistrollmax
 0001:803A0030       aMwaistpitchmax
 0001:803A0040       aMrollmax
 0001:803A004C       aMpitchmax
 0001:803A0058       aManglechangerate
 0001:803A006C       aMwaistanglechangerate
 0001:803A0084       aMscalemin
 0001:803A0090       aMscalemax
 0001:803A009C       aMscaleminspeed
 0001:803A00AC       aMscalemaxspeed
 0001:803A00BC       aMjumppow
 0001:803A00C8       aMjumpxzratio
 0001:803A00D8       aMclashspeed
 0001:803A00E4       aMclashangle
 0001:803A00F0       aMpumpwaittime
 0001:803A0100       aMpumpanmspeed
 0001:803A0110       aMhoverheadangle
 0001:803A0120       aMfeeldeepheadangle
 0001:803A0134       aMfrontwallheadangle
 0001:803A0148       aMslipfriction
 0001:803A0158       aMslopeacceleup
 0001:803A0168       aMslopeacceledown
 0001:803A017C       aMslideacceleup
 0001:803A018C       aMslideacceledown
 0001:803A01A0       aMslidestopnormal
 0001:803A01B4       aMslidestopcatch
 0001:803A01C4       aMjumpenable
 0001:803A01D0       aMmissjump
 0001:803A01DC       aMslideangleysp
 0001:803A01EC       aMstickslidemult
 0001:803A01FC       aMarioMarioeffect_prm
 0001:803A0214       aMdashinc
 0001:803A0220       aMdashdec
 0001:803A022C       aMdashmaxblendinblur
 0001:803A0240       aMdashmaxblendiniris
 0001:803A0254       aMdashblendscale
 0001:803A0264       aMarioMarioparticle_prm
 0001:803A0280       aMmeltinwatermax
 0001:803A0290       aMwaveemitspeed
 0001:803A02A0       aMwavealphadec
 0001:803A02B0       aMbubbledepth
 0001:803A02C0       aMbodybubblespmin
 0001:803A02D4       aMbodybubblespmax
 0001:803A02E8       aMbodybubbleemitmin
 0001:803A02FC       aMbodybubbleemitmax
 0001:803A0310       aMbubbletoripple
 0001:803A0320       aMtoroccowind
 0001:803A0330       aMtoroccospark
 0001:803A0340       aMarioMariomotor_prm
 0001:803A0358       aMmotorreturn
 0001:803A0368       aMmotortrample
 0001:803A0378       aMmotorhipdrop
 0001:803A0388       aMmotorwall
 0001:803A0394       aMarioDirty_prm
 0001:803A03A8       aMincrunning
 0001:803A03B4       aMinccatching
 0001:803A03C4       aMincslipping
 0001:803A03D4       aMdecswimming
 0001:803A03E4       aMdecwaterhit
 0001:803A03F4       aMdecrotjump
 0001:803A0400       aMbrakestartvalslip
 0001:803A0414       aMbrakestartvalrun
 0001:803A0428       aMdirtytimeslip
 0001:803A0438       aMdirtytimerun
 0001:803A0448       aMpolsizeslip
 0001:803A0458       aMpolsizerun
 0001:803A0464       aMpolsizefootprint
 0001:803A0478       aMpolsizejump
 0001:803A0488       aMslopeangle
 0001:803A0494       aMdirtymax
 0001:803A04A0       aMslipanmspeed
 0001:803A04B0       aMsliprunsp
 0001:803A04BC       aMslipcatchsp
 0001:803A04CC       aMsliprotate
 0001:803A04D8       aMslipcatchrotate
 0001:803A04EC       aMbrakeslipnopollute
 0001:803A0500       aMfogtimeyellow
 0001:803A0510       aMfogtimered
 0001:803A051C       aMarioGraffito_prm
 0001:803A0530       aMsinktime
 0001:803A053C       aMsinkdmgtime
 0001:803A054C       aMsinkheight_0
 0001:803A0558       aMsinkmovemin
 0001:803A0568       aMsinkmovemax
 0001:803A0578       aMsinkrecover
 0001:803A0588       aMsinkjumpratemin
 0001:803A059C       aMsinkjumpratemax
 0001:803A05B0       aMsinkpumplimit
 0001:803A05C0       aMsinkdmgdepth
 0001:803A05D0       aMfireheight
 0001:803A05DC       aMdizzyslipctmax
 0001:803A05EC       aMdizzywalkctmax
 0001:803A05FC       aMdizzyangley
 0001:803A060C       aMdizzyanglerate
 0001:803A061C       aMdizzypowerrate
 0001:803A062C       aMdizzypower
 0001:803A0638       aMfireinvincibletime
 0001:803A064C       aMfooterasetimes
 0001:803A065C       aMfooterasesize
 0001:803A066C       aMfooterasefront
 0001:803A067C       aMarioController_prm
 0001:803A0694       aManaloglrtozeroval
 0001:803A06A8       aManaloglrtomiddleval
 0001:803A06C0       aManaloglrtomaxval
 0001:803A06D4       aManaloglrmiddlelevel
 0001:803A06EC       aMstarttowalklevel
 0001:803A0700       aMstickrotatetime
 0001:803A0714       aMlengthmulttimes
 0001:803A0728       aMlengthmult
 0001:803A0734       aMsquatrotmidanalog
 0001:803A0748       aMsquatrotmidvalue
 0001:803A075C       aMarioYoshi_prm
 0001:803A0770       aMrunyoshimult
 0001:803A0780       aMjumpyoshimult
 0001:803A0790       aMrotyoshimult
 0001:803A07A0       aMheadfront
 0001:803A07AC       aMheadradius
 0001:803A07B8       aMholdoutaccctrlf
 0001:803A07CC       aMholdoutaccctrlb
 0001:803A07E0       aMholdoutsldctrl
 0001:803A07F0       aMdecbrake
 0001:803A07FC       aMarioWatereffect_prm
 0001:803A0814       aMjumpintomdleffectspy
 0001:803A082C       aMjumpintominy
 0001:803A083C       aMjumpintomaxy
 0001:803A084C       aMjumpintoscalemin
 0001:803A0860       aMjumpintoscalewidth
 0001:803A0874       aMrunningripplespeed
 0001:803A0888       aMrunningrippledepth
 0001:803A089C       aMarioBar_prm
 0001:803A08AC       aMclimbsp
 0001:803A08B8       aMrotatesp
 0001:803A08C4       aMclimbanmrate
 0001:803A08D4       aMcatchradius
 0001:803A08E4       aMcatchangle
 0001:803A08F0       aMpullratev
 0001:803A08FC       aMpullrateh
 0001:803A0908       aMoilpullratev
 0001:803A0918       aMoilpullrateh
 0001:803A0928       aMarioWire_prm
 0001:803A0938       aMrotspeed
 0001:803A0944       aMrotspeedtrghover
 0001:803A0958       aMrotspeedtrgturbo
 0001:803A096C       aMrotspeedtrgrocket
 0001:803A0980       aMrotspeedmax
 0001:803A0990       aMrotstop
 0001:803A099C       aMrotgravity
 0001:803A09A8       aMrotbrake
 0001:803A09B4       aMjumprate
 0001:803A09C0       aMswingrate
 0001:803A09CC       aMwirejumpaccelcontrol
 0001:803A09E4       aMwirejumpslidecontrol
 0001:803A09FC       aMwirejumpmult
 0001:803A0A0C       aMwirejumpbase
 0001:803A0A1C       aMwireswingbrake
 0001:803A0A2C       aMwireswingmax
 0001:803A0A3C       aMarioHangroof_prm
 0001:803A0A50       aManmmult
 0001:803A0A5C       aMarioHanging_prm
 0001:803A0A70       aManmrate
 0001:803A0A7C       aMrapidtime
 0001:803A0A88       aMlimittime
 0001:803A0A94       aManmrapid
 0001:803A0AA0       aMdescentsp
 0001:803A0AAC       aMarioSwim_prm
 0001:803A0ABC       aMstartsp
 0001:803A0AC8       aMmovebrake
 0001:803A0AD4       aMswimmingrotspmin
 0001:803A0AE8       aMswimmingrotspmax
 0001:803A0AFC       aMpumpingrotspmin
 0001:803A0B10       aMpumpingrotspmax
 0001:803A0B24       aMwaitbouyancy
 0001:803A0B34       aMmovebouyancy
 0001:803A0B44       aMupdownbrake
 0001:803A0B54       aMcanjumpdepth
 0001:803A0B64       aMenddepth
 0001:803A0B70       aMfloatheight
 0001:803A0B80       aMstartvmult
 0001:803A0B8C       aMstartvymult
 0001:803A0B9C       aManmbrake
 0001:803A0BA8       aMpaddlespeedup
 0001:803A0BB8       aMpaddlejumpup
 0001:803A0BC8       aMfloatup
 0001:803A0BD4       aMwaterlevelcheckheight
 0001:803A0BEC       aMpaddledown
 0001:803A0BF8       aMwaitsinktime
 0001:803A0C08       aMcanbreathdepth
 0001:803A0C18       aMwaitsinkspeed
 0001:803A0C28       aMairdecdive
 0001:803A0C34       aMarioRun_prm
 0001:803A0C44       aMmaxspeed
 0001:803A0C50       aMvelminusbrake
 0001:803A0C60       aMaddbase
 0001:803A0C6C       aMaddveldiv
 0001:803A0C78       aMdecstartnrmy
 0001:803A0C88       aMsoft2walk
 0001:803A0C94       aMwalk2soft
 0001:803A0CA0       aMsoftstepanmmult
 0001:803A0CB4       aMrunanmspeedbase
 0001:803A0CC8       aMrunanmspeedmult
 0001:803A0CDC       aMmotblendwalksp
 0001:803A0CEC       aMmotblendrunsp
 0001:803A0CFC       aMswimdepth
 0001:803A0D08       aMinwaterbrake
 0001:803A0D18       aMinwateranmbrake
 0001:803A0D2C       aMpumpingslidesp
 0001:803A0D3C       aMpumpingslideanmsp
 0001:803A0D50       aMdojumpcatchsp
 0001:803A0D60       aMturnneedsp
 0001:803A0D6C       aMdashrotsp
 0001:803A0D78       aMarioJump_prm
 0001:803A0D88       aMspinjumpgravity
 0001:803A0D9C       aMjumpingmax
 0001:803A0DA8       aMjumpspeedbrake
 0001:803A0DB8       aMjumpaccelcontrol
 0001:803A0DCC       aMjumpslidecontrol
 0001:803A0DE0       aMturnjumpforce
 0001:803A0DF0       aMfencespeed
 0001:803A0DFC       aMfiredownforce
 0001:803A0E0C       aMfiredowncontrol
 0001:803A0E20       aMfirebackvelocity
 0001:803A0E34       aMbroadjumpforce
 0001:803A0E44       aMbroadjumpforcey
 0001:803A0E58       aMrotatejumpforcey
 0001:803A0E6C       aMpopupspeedy
 0001:803A0E7C       aMpopupforceymult
 0001:803A0E90       aMbackjumpforce
 0001:803A0EA0       aMbackjumpforcey
 0001:803A0EB0       aMhipattackspeedy
 0001:803A0EC4       aMsuperhipattackspeedy
 0001:803A0EDC       aMjumpcatchrotxsp
 0001:803A0EF0       aMjumpcatchrotxmax
 0001:803A0F04       aMrotbroadenablev
 0001:803A0F18       aMrotbroadjumpforce
 0001:803A0F2C       aMrotbroadjumpforcey
 0001:803A0F40       aMtrampolinedec
 0001:803A0F50       aMsecjumpenablesp
 0001:803A0F64       aMsecjumpforce
 0001:803A0F74       aMsecjumpspeedmult
 0001:803A0F88       aMsecjumpxzmult
 0001:803A0F98       aMtrijumpenablesp
 0001:803A0FAC       aMultrajumpforce
 0001:803A0FBC       aMultrajumpspeedmult
 0001:803A0FD0       aMultrajumpxzmult
 0001:803A0FE4       aMvalleydepth
 0001:803A0FF4       aMthrownaccel
 0001:803A1004       aMthrownslide
 0001:803A1014       aMthrownbrake
 0001:803A1024       aMtremblepower
 0001:803A1034       aMtrembleaccele
 0001:803A1044       aMtremblebrake
 0001:803A1054       aMtrembletime
 0001:803A1064       aMjumpjumpcatchsp
 0001:803A1078       aMgetoffyoshiy
 0001:803A1088       aMsuperhipattackct
 0001:803A109C       aMheadrot
 0001:803A10A8       aMarioMario_prm
 0001:803A10BC       aMrunningmax
 0001:803A10C8       aMdashmax
 0001:803A10D4       aMdashacc
 0001:803A10E0       aMdashbrake
 0001:803A10EC       aMdashstarttime
 0001:803A10FC       aMwaitingrotsp
 0001:803A110C       aMrunningrotspmin
 0001:803A1120       aMrunningrotspmax
 0001:803A1134       aMrocketrotsp
 0001:803A1144       aMfootprinttimermax
 0001:803A1158       aMwatertriggerrate
 0001:803A116C       aMgraffitonodmgtime
 0001:803A1180       aMrestmax
 0001:803A118C       aMshadowsize
 0001:803A1198       aMshadowerase
 0001:803A11A8       aMholdradius
 0001:803A11B4       aMdamageradius
 0001:803A11C4       aMdamageheight
 0001:803A11D4       aMattackheight
 0001:803A11E4       aMtrampleradius
 0001:803A11F4       aMpushupradius
 0001:803A1204       aMpushupheight
 0001:803A1214       aMhipdropradius
 0001:803A1224       aMquakeradius
 0001:803A1234       aMquakeheight
 0001:803A1244       aMtramplepowstep1
 0001:803A1258       aMtramplepowstep2
 0001:803A126C       aMtramplepowstep3
 0001:803A1280       aMjumpwallheight
 0001:803A1290       aMthrowpower
 0001:803A129C       aMslipstart
 0001:803A12A8       aMwasonwaterslip
 0001:803A12B8       aMinwaterslip
 0001:803A12C8       aMtoroccorotsp
 0001:803A12D8       aMrecovertimer
 0001:803A12E8       aMhottimer
 0001:803A12F4       aMfeeldeep
 0001:803A1300       aMdamagefallheight
 0001:803A1314       aMforceslipangle
 0001:803A1324       aMhangwallmovableangle
 0001:803A133C       aMcolmvmax
 0001:803A1348       aMnofreezetime
 0001:803A1358       aMkickfreezetime
 0001:803A1368       aMsurfstartfreezetime
 0001:803A1380       aMsleepingcheckdist
 0001:803A1394       aMsleepingcheckheight
 0001:803A13AC       aMillegalplanectinc
 0001:803A13C0       aMillegalplanetime
 0001:803A13D4       aMarioDamagewateremit_prm
 0001:803A13F0       aMarioWetwateremit_prm
 0001:803A1408       aGGkgigggtgfgngg
 0001:803A141C       aHitactor_3
 0001:803A1428       aMarioBodyanglefree_prm
 0001:803A1444       aMarioBodyanglewatergun_prm
 0001:803A1464       aMarioAttackfencepunch_prm
 0001:803A1480       aMarioAttackkickroof_prm
 0001:803A149C       aMarioPullparambgbeak_prm
 0001:803A14B8       aMarioPullparambgtentacle_prm
 0001:803A14D8       aMarioPullparambgfirewanwanbosstail_prm
 0001:803A1504       aMarioPullparamfirewanwantail_prm
 0001:803A1528       aMarioSurfingwaterred_prm
 0001:803A1544       aMarioSurfinggroundred_prm
 0001:803A1560       aMarioSurfingwateryellow_prm
 0001:803A1580       aMarioSurfinggroundyellow_prm
 0001:803A15A0       aMarioSurfingwatergreen_prm
 0001:803A15C0       aMarioSurfinggroundgreen_prm
 0001:803A15E0       aMarioHhover_prm
 0001:803A15F4       aMarioDiving_prm
 0001:803A1608       aMarioSlipparamnormal_prm
 0001:803A1624       aMarioSlipparamoil_prm
 0001:803A163C       aMarioSlipparamall_prm
 0001:803A1654       aMarioSlipparamall_slider_prm
 0001:803A1674       aMarioSlipparam45_prm
 0001:803A168C       aMarioSlipparamwaterslope_prm
 0001:803A16AC       aMarioSlipparamwaterground_prm
 0001:803A16CC       aMarioSlipparamyoshi_prm
 0001:803A16E8       aMarioUpperbody_prm
 0001:803A1700       aMarioDmgenemycommon_prm
 0001:803A171C       aMarioDmghamukuri_prm
 0001:803A1734       aMarioDmgnamekuri_prm
 0001:803A174C       aMarioDmghinokuri_prm
 0001:803A1764       aMarioDmgfire_prm
 0001:803A1778       aMarioDmgbgtentacle_prm
 0001:803A1794       aMarioDmgbosseel_prm
 0001:803A17AC       aMarioDmghanachanboss_prm
 0001:803A17C8       aMarioDmgpoihana_prm
 0001:803A17E0       aMarioDmgkiller_prm
 0001:803A17F8       aMarioDmglamptrapiron_prm
 0001:803A1814       aMarioDmglamptrapspike_prm
 0001:803A1830       aMarioDmgenemymario_prm
 0001:803A184C       aMarioDmgcannotbreath_prm
 0001:803A1868       aMarioDmggraffitofire_prm
 0001:803A1884       aMarioDmggraffitopoison_prm
 0001:803A18A4       aMarioDmggraffitoelec_prm
 0001:803A18C0       aMarioDmggraffitolava_prm
 0001:803A18DC       aMarioDmggraffitowatersurface_prm
 0001:803A1900       aMarioDmgmapcode0_prm
 0001:803A1918       aMarioDmgmapcode1_prm
 0001:803A1930       aMarioDmgmapcode2_prm
 0001:803A1948       aMarioDmgmapcode3_prm
 0001:803A1960       aMarioDmgmapcode4_prm
 0001:803A1978       aMarioDmgmapcode5_prm
 0001:803A1990       aMarioDmgmapcode6_prm
 0001:803A19A8       aMarioDmgmapcode7_prm
 0001:803A19C0       aMarioDmgmapcode8_prm
 0001:803A19D8       aMarioDmgmapcode9_prm
 0001:803A19F0       aMarioOption_prm
 0001:803A1A14       aGbgvgkvkslvsvVV_1
 0001:803A1A28       aMactormtxcalctype_basicGngigvgbgngxgpbGlvnvm_0
 0001:803A1A58       aMactormtxcalctype_softimageGngigvgbgngxgpbGlvnveve_1
 0001:803A1A90       aMactormtxcalctype_motionblendGvbGvgzgugugmgugh_1
 0001:803A1AC4       aMactormtxcalctype_userGjbGubTsl_1
 0001:803A1AE8       aMarioWtp00_nor
 0001:803A1B00       aMarioWtp01_wid
 0001:803A1B18       aMarioWtp02_bom
 0001:803A1B30       aMarioWtp03_trg
 0001:803A1B4C       aMarioWtp04_hho
 0001:803A1B64       aMarioWtp05_sin
 0001:803A1B7C       aMarioWtp06_yos
 0001:803A1B94       aMarioWtp07_div
 0001:803A1BAC       aMarioWtp08_bub
 0001:803A1BC4       aMarioWtp09_par
 0001:803A1BE0       aMarioWtp10_bac
 0001:803A1BF8       aMarioWtp11_spr
 0001:803A1C14       aMarioWtp12_yos
 0001:803A1C30       aMarioWtp13_tur
 0001:803A1C48       aMarioWtp14_roc
 0001:803A1C60       aMarioWtp15_hov
 0001:803A1C78       aMarioWtp16_spr
 0001:803A1CA0       aGxgngkbGugeg_2
 0001:803A1CB8       aMarioTimgWater
 0001:803A1CD4       aMarioTimgWat_0
 0001:803A1CF0       aMarioTimgWat_1
 0001:803A1D0C       aMarioTimgWat_2
 0001:803A1D2C       aMarioBmdWater_
 0001:803A1D50       aMarioBmdWate_0
 0001:803A1D74       aMarioBmdWaterm
 0001:803A1D90       aMarioBmdWate_1
 0001:803A1DB4       aMarioBmdWate_2
 0001:803A1DD8       aMextension
 0001:803A1DE4       aMmagnify
 0001:803A1DF0       aMcleansize
 0001:803A1DFC       aMgravity
 0001:803A1E08       aMdirtremble
 0001:803A1E14       aMpowtremble
 0001:803A1E20       aMsizetremble
 0001:803A1E30       aMhitradius
 0001:803A1E3C       aMhitheight
 0001:803A1E48       a__padding
 0001:803A1E54       aHitactor_0
 0001:803A1E60       aSurfgeso_run1
 0001:803A1FB8       aCFagqbGacpgvgggcguvp
 0001:803A1FD0       aCFagqbGacpgvgggcguvq
 0001:803A2018       aGetsystemflag
 0001:803A2028       aSetsystemflag
 0001:803A2038       aGetnamerefhand
 0001:803A204C       aGetnamerefname
 0001:803A205C       aGetnpctype
 0001:803A2068       aSetflagnpcdont
 0001:803A207C       aSetflagnpcdo_0
 0001:803A2090       aSetflagnpcdead
 0001:803A20A0       aIsnearsameacto
 0001:803A20B4       aIsnearactors
 0001:803A20C4       aGettalknpc
 0001:803A20D0       aGettalknpcname
 0001:803A20E0       aSettalkmsgid
 0001:803A20F0       aGettalkmode
 0001:803A20FC       aGettalkselecte
 0001:803A2114       aSetvalue2talkv
 0001:803A212C       aIstalkmodenow
 0001:803A213C       aSetflagnpccant
 0001:803A2150       aPushnerve4live
 0001:803A2164       aIsonliveactorf
 0001:803A2178       aSethide4liveac
 0001:803A218C       aSetdead4liveac
 0001:803A21A0       aSettimelimit
 0001:803A21B0       aSetattentionti
 0001:803A21C4       aSetpollutionin
 0001:803A21E0       aGetresttime
 0001:803A21EC       aGetpollutionle
 0001:803A2200       aSetnextstage
 0001:803A2210       aRegistermovie
 0001:803A2220       aGameover
 0001:803A222C       aIsgraffitocove
 0001:803A2240       aSetgraffitomul
 0001:803A2258       aIsbossdefeated
 0001:803A2268       aLauncheventcle
 0001:803A2280       aIsemarioreache
 0001:803A2298       aIsemariodownwa
 0001:803A22B4       aStartemariorun
 0001:803A22C8       aStartemariogat
 0001:803A22E0       aStartemariodis
 0001:803A22F8       aStartopenmodel
 0001:803A230C       aIsmapeventfini
 0001:803A2324       aRaisebuilding
 0001:803A2334       aForceclosetalk
 0001:803A2344       aInserttimer
 0001:803A2350       aStarttimer
 0001:803A235C       aStartmonteman
 0001:803A236C       aStoptimer
 0001:803A2378       aMontemanreachf
 0001:803A238C       aKillshine
 0001:803A2398       aKillmushroom1u
 0001:803A23A8       aAppearmushroom
 0001:803A23BC       aAppearshinefro
 0001:803A23D0       aAppearshinef_0
 0001:803A23F0       aAppearshinef_1
 0001:803A240C       aAppearshine
 0001:803A2418       aAppearshinefor
 0001:803A2430       aChangenozzle
 0001:803A2440       aStartmariotalk
 0001:803A2454       aIsinsidecube
 0001:803A2464       aSetmariowaitin
 0001:803A2474       aSettransscale
 0001:803A2484       aSeteventid
 0001:803A2490       aStartbgm
 0001:803A249C       aStartmiss
 0001:803A24A8       aStarteventse
 0001:803A24B8       aChangesunglass
 0001:803A24C8       aSetcollision
 0001:803A24D8       aWarpmario
 0001:803A24E4       aStartappearjet
 0001:803A24FC       aAppear8redcoin
 0001:803A2514       aWarpfronttomar
 0001:803A2528       aAppearreadygo
 0001:803A2538       aOnneutralmario
 0001:803A254C       aInvalidatepad
 0001:803A255C       aStartmontemanb
 0001:803A2570       aStartmontemanf
 0001:803A2588       aCheckwoodbox
 0001:803A2598       aRefreshwoodbox
 0001:803A25A8       aKillwoodbox
 0001:803A25B4       aManicoinfalldo
 0001:803A25C8       aEggyoshistartf
 0001:803A25DC       aPutnozzle
 0001:803A25E8       aStartmarebottl
 0001:803A25FC       aIsfinishmarebo
 0001:803A2614       aIsinsidefastcu
 0001:803A2628       aSeteventforwat
 0001:803A2640       aIswatermelonis
 0001:803A2658       aTspcstackSta_5
 0001:803A2674       aTspcstackSta_6
 0001:803A2694       aRGrgcgucpgxgcg
 0001:803A26A8       aGtgugogigxgtgf
 0001:803A26BC       aVdvwgrgu
 0001:803A26C8       aExbottle_bottl
 0001:803A26DC       aCFagqbGacpgvgg
 0001:803A26F8       aGvgugegGu
 0001:803A2704       aGcgxguggbigjgq
 0001:803A2748       aTdstagegroup_1
 0001:803A2758       aFrmgxset_1
 0001:803A2764       aRootViewObjs_1
 0001:803A2774       aGroup2d_1
 0001:803A2780       aNintendoTimgNintendo_376x104_bti
 0001:803A27A4       aNintendoTimgTitle_dolby_mark_bti
 0001:803A27C8       aNintendo2d
 0001:803A27D4       aProgselect
 0001:803A27E0       aDstagedisp_1
 0001:803A27F0       aTorthoproj_1
 0001:803A2800       aScreen2d_1
 0001:803A280C       aTdirector_0
 0001:803A2835       aWobj
 0001:803A283C       aGcgxguggcpgxgggbgvgeghgbg
 0001:803A2A30       aGGkgigzgbggiTu
 0001:803A2A44       aSceneMapCamera
 0001:803A3158       aMarious_map
 0001:803A35C8       aGcconsole
 0001:803A3A98       aStageeventinfo
 0001:803A3AAC       aCameramaptoolt
 0001:803A3AC0       aCubegeneralinf
 0001:803A3AD8       aNamerefptraryt
 0001:803A3AEC       aCubegenerali_0
 0001:803A3AFC       aTcubegeneralin
 0001:803A3B10       aCameracubeinfo
 0001:803A3B20       aTcubecamerainf
 0001:803A3B34       aStreamgenerali
 0001:803A3B4C       aCubestreaminfo
 0001:803A3B5C       aTcubestreaminf
 0001:803A3B70       aScenarioarch_0
 0001:803A3B8C       aScenarioarch_1
 0001:803A3BA8       aTalkcursor
 0001:803A3BB4       aTargetarrow
 0001:803A3BC0       aPositionholder
 0001:803A3BD0       aMariopositiono
 0001:803A3BE4       aMariopositio_0
 0001:803A3BF8       aPerformlist
 0001:803A3C04       aGxalphaupdate
 0001:803A3C14       aTgxalphaupdate
 0001:803A3C28       aReinitgx
 0001:803A3C34       aTreinitgx
 0001:803A3C40       aJ3dsyssetviewm
 0001:803A3C54       aJ3dsyssetvie_0
 0001:803A3C68       aSmsdrawinit
 0001:803A3C74       aSmsdrawinit_0
 0001:803A3C84       aZbuffercatch
 0001:803A3C94       aZbuffercatch_0
 0001:803A3CA4       aAlphacatch
 0001:803A3CB0       aAlphacatch_0
 0001:803A3CC0       aJ3dsysflag
 0001:803A3CCC       aJ3dsysflag_0
 0001:803A3CDC       aConductor
 0001:803A3CE8       aStagepositioni
 0001:803A3CFC       aTcameramaptool
 0001:803A3D10       aScenarioarchiv
 0001:803A3D74       aBeachD
 0001:803A3D80       aHotelD
 0001:803A3D8C       aCasino0
 0001:803A3D98       aCasino1
 0001:803A3DA4       aSeaBottom
 0001:803A3DB0       a02dNotFound
 0001:803A3DC0       a02dSceneD
 0001:803A3DD0       a02dExD
 0001:803A3DDC       aDataTitle_arc
 0001:803A3DEC       aRootViewObjs
 0001:803A3DFC       aGroup2d
 0001:803A3E08       aTitle_blo
 0001:803A3E14       aTmenubase
 0001:803A3E20       aTflashpane
 0001:803A3E30       aTitleMarisun_s
 0001:803A3E4C       aShowMovieD
 0001:803A3E5C       a02dNoData
 0001:803A3E78       aDstagedisp
 0001:803A3E88       aTorthoproj
 0001:803A3E98       aScreen2d
 0001:803A3EA4       aTdstagegroup
 0001:803A3EB4       aFrmgxset
 0001:803A3EC0       aTdirector_1
 0001:803A3ED0       aMapParams
 0001:803A4030       aDataScene
 0001:803A403C       aAnErrorHasOccu
 0001:803A40B8       aTheDiscCouldNo
 0001:803A4124       aReadingDisc___
 0001:803A4134       aTheDiscCoverIs
 0001:803A4180       aPleaseInsertAS
 0001:803A41B0       aThisDiscIsNotS
 0001:803A4208       aNintendo
 0001:803A4214       aGxgebGwcigvgig
 0001:803A4238       aCardMario_icon
 0001:803A4250       aCardMariobnr_b
 0001:803A4264       aStandard_fonte
 0001:803A4278       aMsound_aaf
 0001:803A4284       aDataMario_arc
 0001:803A4294       aDataCommon_arc
 0001:803A42A8       aDataStagearc_b
 0001:803A42BC       aDataGame_6_arc
 0001:803A42D0       aDataGuide_arc
 0001:803A42E0       aGlbGggtgfbG_b
 0001:803A42F4       aDataNintendo_a
 0001:803A5C48       aMactormtxcalctype_basic_0
 0001:803A5C78       aMactormtxcalctype_softimage_1
 0001:803A5D88       aTsunmgr
 0001:803A5D94       aSunmodel
 0001:803A5DA0       aTsunmodel
 0001:803A5DAC       aSunsetmodel
 0001:803A5DB8       aMarinesnow
 0001:803A5DC4       aStickystain
 0001:803A5DD0       aTviewobj_2
 0001:803A5DDC       aBathwater
 0001:803A6964       aWatermelon_0
 0001:803A6970       aViiVpgxgcgj
 0001:803A6980       aWatermelonstatic
 0001:803A6994       aMTsgxgcgj
 0001:803A69A0       aShiningstone_2
 0001:803A69B0       aSandcastle_0
 0001:803A69BC       aMammablockrotate
 0001:803A69D0       aSCzvUggugngbgn
 0001:803A69E4       aMammasurfboard_0
 0001:803A69F4       aMammayacht
 0001:803A6A00       aGoalwatermelon_0
 0001:803A6A10       aGxgcgjgsbGl
 0001:803A6A20       aVVVVVV
 0001:803A6A30       aMerrygoround
 0001:803A6A40       aGbgkbGsbGigugh
 0001:803A6A54       aFerriswheel_2
 0001:803A6A60       aGogcglgugo
 0001:803A6A6C       aSirenagate_0
 0001:803A6A78       aGvgmgigqbGg
 0001:803A6A88       aPinnadoor_0
 0001:803A7058       aCoinblue
 0001:803A7064       aRGrgcgu_1
 0001:803A7070       aIbvGigugwgf
 0001:803A7080       aWaterhithideobj
 0001:803A7090       aRegqgbgggigugwgf
 0001:803A70A4       aFruithithideobj
 0001:803A70B4       aHipdrophideobj_0
 0001:803A70C4       aGqgbgvghgngbgvgigugwgf
 0001:803A70DC       aHideobjpicturetwin
 0001:803A70F0       aVVVCopsvl
 0001:803A7100       aFlowercoin
 0001:803A710C       aGrgcguGtgigpbCp
 0001:803A7120       aGvgggcgu
 0001:803A712C       aNozzlebox_0
 0001:803A7138       aGmgyglgGbgngx
 0001:803A7148       aItemnozzle
 0001:803A7154       aMushroom1up_3
 0001:803A7160       aVpvtvoglgmgr_0
 0001:803A7170       aMushroom1upr_2
 0001:803A7180       aMushroom1upx_1
 0001:803A7190       aEggyoshi_0
 0001:803A719C       aGigbgvbVCs
 0001:803A71AC       aNormalblock_1
 0001:803A71B8       aSuperhipdropblock
 0001:803A71CC       aGxbGpbGqgbgvghgngbgvgugngbgn
 0001:803A71EC       aIceblock_0
 0001:803A71F8       aGagcgxgugngbgn
 0001:803A7208       aBreakableblock
 0001:803A76A8       aSuper_mario_su
 0001:803A7830       aDataEx128x144_
 0001:803A7848       aMs_m_rocket_a_
 0001:803A785C       aMs_m_rocket_b_
 0001:803A7870       aMs_m_rocket_b2
 0001:803A7884       aMs_m_rocket_c_
 0001:803A7898       aMs_m_rocket_d_
 0001:803A78AC       aMs_firedmg_a_j
 0001:803A78C0       aMs_fumi_a_jpa
 0001:803A78D0       aMs_fumi_b_jpa
 0001:803A78E0       aMs_fumi_c_jpa
 0001:803A78F0       aMs_dmg_a_jpa
 0001:803A7900       aMs_dmg_b_jpa
 0001:803A7910       aMs_dmg_c_jpa
 0001:803A7920       aMs_mariwalk1_a
 0001:803A7934       aMs_mariwalk1_b
 0001:803A7948       aMs_mariwalk1_c
 0001:803A795C       aMs_ase_jpa
 0001:803A7968       aMs_itemget1_a_
 0001:803A797C       aMs_itemget1_b_
 0001:803A7990       aMs_jump_ed_a_j
 0001:803A79A4       aMs_jump_ed_b_j
 0001:803A79B8       aMs_hipdrop_a_j
 0001:803A79CC       aMs_hipdrop_b_j
 0001:803A79E0       aMs_hipdrop_c_j
 0001:803A79F4       aMs_wallkick_a_
 0001:803A7A08       aMs_wallkick_b_
 0001:803A7A1C       aMs_marioap_bod
 0001:803A7A30       aMs_marioap_hea
 0001:803A7A44       aMs_marioap_cap
 0001:803A7A58       aMs_marioap_rha
 0001:803A7A70       aMs_marioap_lha
 0001:803A7A88       aMs_marioap_rle
 0001:803A7A9C       aMs_marioap_rfo
 0001:803A7AB4       aMs_marioap_lle
 0001:803A7AC8       aMs_marioap_lfo
 0001:803A7AE0       aMs_marioap_wat
 0001:803A7AF8       aMs_watboost_on
 0001:803A7B0C       aMs_m_tobikomi_
 0001:803A7B20       aMs_m_tobikom_0
 0001:803A7B34       aMs_m_tobikom_1
 0001:803A7B4C       aMs_m_tobikom_2
 0001:803A7B64       aMs_m_awahamon_
 0001:803A7B78       aMs_m_watrun_a_
 0001:803A7B8C       aMs_m_watrun_b_
 0001:803A7BA0       aMs_m_watrun_c_
 0001:803A7BB4       aMs_coinget_a_j
 0001:803A7BC8       aMs_coinget_b_j
 0001:803A7BDC       aMs_m_amiattack
 0001:803A7BF0       aMs_m_walksand_
 0001:803A7C04       aMs_m_walksan_0
 0001:803A7C18       aMs_yos_nomu_a_
 0001:803A7C2C       aMs_yos_nomu_b_
 0001:803A7C40       aMs_yos_warp_jp
 0001:803A7C50       aMs_m_gout_gate
 0001:803A7C64       aMs_m_gout_doka
 0001:803A7C78       aMs_m_walkcloud
 0001:803A7C8C       aMs_m_sphipd_hi
 0001:803A7CA4       aMs_m_sphipd__0
 0001:803A7CBC       aMs_m_sphipd__1
 0001:803A7CD4       aMs_m_sphipd__2
 0001:803A7CEC       aMs_redcoinget_
 0001:803A7D00       aMs_redcoinge_0
 0001:803A7D14       aMs_redcoinge_1
 0001:803A7D28       aMs_redcoinge_2
 0001:803A7D3C       aMs_redcoinge_3
 0001:803A7D50       aMs_redcoinge_4
 0001:803A7D64       aMs_redcoinge_5
 0001:803A7D78       aMs_redcoinge_6
 0001:803A7D8C       aMs_watboost_a_
 0001:803A7DA0       aMs_watboost_b_
 0001:803A7DB4       aMs_hikage1_a_j
 0001:803A7DC8       aMs_hikage1_b_j
 0001:803A7DDC       aMs_mariwallsl1
 0001:803A7DF0       aMs_m_slipsmoke
 0001:803A7E04       aMs_m_hamon_a_j
 0001:803A7E18       aMs_m_hamon_c_j
 0001:803A7E2C       aMs_m_hamon_d_j
 0001:803A7E40       aMs_m_blur3_jpa
 0001:803A7E50       aMs_m_blur2_jpa
 0001:803A7E60       aMs_m_blur2sp_j
 0001:803A7E74       aMs_m_awa_jpa
 0001:803A7E84       aMs_nozzlesmoke
 0001:803A7E98       aMs_m_blur1_jpa
 0001:803A7EA8       aMs_m_slidesand
 0001:803A7EC0       aMs_m_slidesa_0
 0001:803A7ED8       aMs_m_awa_s_jpa
 0001:803A7EE8       aMs_m_watslide_
 0001:803A7EFC       aMs_m_watslid_0
 0001:803A7F10       aMs_m_spinshot_
 0001:803A7F24       aMs_m_spinsho_0
 0001:803A7F38       aMs_m_biri_a_jp
 0001:803A7F48       aMs_m_biri_b_jp
 0001:803A7F58       aMs_m_biri_c_jp
 0001:803A7F68       aMs_yos_ase_jpa
 0001:803A7F78       aMs_gesosurf_b_
 0001:803A7F8C       aMs_gesosurf_c_
 0001:803A7FA0       aMs_gesosurf_d_
 0001:803A7FB4       aMs_poi_zzz_jpa
 0001:803A7FC4       aMs_m_mzbhamon_
 0001:803A7FD8       aMs_m_mzbhamo_0
 0001:803A7FEC       aMs_m_sphipd_a_
 0001:803A8000       aMs_m_sphipd_b_
 0001:803A8014       aMs_m_sphipd_c_
 0001:803A8028       aMs_m_sphipd_d_
 0001:803A803C       aMs_m_seasmoke_
 0001:803A8050       aMs_toro_wind_j
 0001:803A8064       aMs_toro_hibana
 0001:803A8078       aMs_m_tobikom_3
 0001:803A808C       aMs_m_tobikom_4
 0001:803A80A4       aMs_gatein_jpa
 0001:803A80B4       aMs_m_hamon_b_j
 0001:803A80C8       aMs_gesosurf_a_
 0001:803A80DC       aMs_m_mzbhamo_1
 0001:803A80F0       aMs_m_watslid_1
 0001:803A8104       aMs_mpk_fire_c_
 0001:803A8118       aDataParticle_a
 0001:803A812C       aMs_shine_promi
 0001:803A8140       aMs_shine_senko
 0001:803A8154       aMs_shine_kira_
 0001:803A8168       aMs_shine_bow_j
 0001:803A817C       aMs_osendan_jpa
 0001:803A818C       aMs_poi_sand_jp
 0001:803A819C       aMs_chu_jump_jp
 0001:803A81AC       aMs_packn_ap_ro
 0001:803A81C4       aMs_packn_ap_sm
 0001:803A81DC       aMs_deadnamekli
 0001:803A81F4       aMs_deadnamek_0
 0001:803A820C       aMs_deadnamek_1
 0001:803A8224       aMs_deadnamek_2
 0001:803A823C       aMs_deaddorokli
 0001:803A8250       aMs_deaddorok_0
 0001:803A8268       aMs_deadhamkli_
 0001:803A827C       aMs_deadhamkl_0
 0001:803A8290       aMs_moe_fire_of
 0001:803A82A4       aMs_popo_bomb_a
 0001:803A82B8       aMs_popo_bomb_b
 0001:803A82CC       aMs_deadhanekli
 0001:803A82E0       aMs_deadhanek_0
 0001:803A82F8       aMs_deadmoekli_
 0001:803A830C       aMs_deadmoekl_0
 0001:803A8320       aMs_smb_kafun_o
 0001:803A8334       aMs_smb_kafun_0
 0001:803A8348       aMs_smb_kafun_c
 0001:803A835C       aMs_smb_kafun_1
 0001:803A8370       aMs_smb_ap_rock
 0001:803A8384       aMs_smb_ap_smok
 0001:803A8398       aMs_smb_hd_rock
 0001:803A83AC       aMs_smb_hd_smok
 0001:803A83C0       aMs_geso_dead_j
 0001:803A83D4       aMs_geso_cannon
 0001:803A83E8       aMs_geso_osenhi
 0001:803A8400       aMs_geso_osen_0
 0001:803A8418       aMs_pkh_toke_jp
 0001:803A8428       aMs_pkh_fumi_jp
 0001:803A8438       aMs_poi_dead_jp
 0001:803A8448       aMs_petbtl_bomb
 0001:803A8460       aMs_petbtl_bo_0
 0001:803A8478       aMs_petbtl_appe
 0001:803A8490       aMs_mnt_kira_jp
 0001:803A84A0       aMs_mare_kira_j
 0001:803A84B4       aMs_mnt_yogore_
 0001:803A84C8       aMs_mnt_yogor_0
 0001:803A84DC       aMs_mare_yogore
 0001:803A84F0       aMs_kino_yogore
 0001:803A8504       aMs_cho_moku_a_
 0001:803A8518       aMs_cho_moku_b_
 0001:803A852C       aMs_cho_ase_jpa
 0001:803A853C       aMs_dnk_shibire
 0001:803A8554       aMs_iga_fumi_ai
 0001:803A8568       aMs_tama_flower
 0001:803A857C       aMs_tls_change_
 0001:803A8590       aMs_tls_dead_jp
 0001:803A85A0       aMs_teppanfire_
 0001:803A85B4       aMs_enm_wallhit
 0001:803A85C8       aMs_enm_wallh_0
 0001:803A85E0       aMs_enm_disap_a
 0001:803A85F4       aMs_enm_disap_0
 0001:803A860C       aMs_enm_disap_b
 0001:803A8620       aMs_enm_wathit_
 0001:803A8634       aMs_ex_cube_dis
 0001:803A8648       aMs_poi_kizetsu
 0001:803A865C       aMs_chu_ase_jpa
 0001:803A866C       aMs_moe_fire_a_
 0001:803A8680       aMs_moe_fire_b_
 0001:803A8694       aMs_moe_fire_d_
 0001:803A86A8       aMs_popo_shuwa_
 0001:803A86BC       aMs_popo_shuw_0
 0001:803A86D0       aMs_packn_hd_ro
 0001:803A86E8       aMs_packn_hd_sm
 0001:803A8700       aMs_geso_kiseki
 0001:803A8714       aMs_npc_kokuen_
 0001:803A8728       aMs_npc_hamon_a
 0001:803A873C       aMs_npc_hamon_b
 0001:803A8750       aMs_mnt_wash_jp
 0001:803A8760       aMs_mare_wash_j
 0001:803A8774       aMs_kil_smoke_j
 0001:803A8788       aMs_pkh_doro_jp
 0001:803A8798       aMs_pkh_wash_jp
 0001:803A87A8       aMs_puku_pichi_
 0001:803A87BC       aMs_puku_awa_jp
 0001:803A87CC       aMs_petbtl_smok
 0001:803A87E0       aMs_dnk_biri_jp
 0001:803A87F0       aMs_dnk_spark_l
 0001:803A8804       aMs_dnk_spark_r
 0001:803A8818       aMs_dnk_shibi_0
 0001:803A8830       aMs_dnk_hibana_
 0001:803A8844       aMs_bomb_limit_
 0001:803A8858       aMs_amn_biri_jp
 0001:803A8868       aMs_amn_spark_l
 0001:803A887C       aMs_amn_spark_r
 0001:803A8890       aMs_amn_spark_m
 0001:803A88A4       aMs_tama_hit_jp
 0001:803A88B4       aMs_tama_blur_j
 0001:803A88C8       aMs_tls_yodare_
 0001:803A88DC       aMs_tls_yodar_0
 0001:803A88F0       aMs_ynb_onpu_jp
 0001:803A8900       aMs_teppanfir_0
 0001:803A8914       aMs_map_fire_a_
 0001:803A8928       aMs_map_fire_b_
 0001:803A893C       aMs_mpk_fire_a_
 0001:803A8950       aMs_mpk_fire_b_
 0001:803A8964       aMs_mari_rakuba
 0001:803A897C       aMs_mari_rakuha
 0001:803A8994       aMs_raku_indawa
 0001:803A89A8       aMs_raku_kie_jp
 0001:803A89B8       aMs_teppanfir_1
 0001:803A89CC       aMs_name_indire
 0001:803A89E4       aMs_moe_fire_c_
 0001:803A89F8       aMs_map_fire_c_
 0001:803A8A0C       aMs_sl_or_melt1
 0001:803A8A20       aMs_sl_or_melt2
 0001:803A8A34       aMs_sl_or_damag
 0001:803A8A48       aMs_gene_dead_j
 0001:803A8A5C       aMs_gene_hit_jp
 0001:803A8A6C       aMs_2d_pause_sm
 0001:803A8A80       aMs_2d_pause_se
 0001:803A8A94       aMs_2d_icon_kir
 0001:803A8AAC       aMs_2d_icon_k_0
 0001:803A8AC4       aMs_2d_go_jpa
 0001:803A8AD4       aMs_2d_get_a_jp
 0001:803A8AE4       aMs_2d_get_b_jp
 0001:803A8AF4       aMs_2d_elecflas
 0001:803A8B08       aDataBosshanach
 0001:803A8B24       aMarioparticlem
 0001:803A8B3C       aDataYoshi_arc
 0001:803A8B4C       aDataScenecmn_b
 0001:803A8B60       aDataParams_arc
 0001:803A8B74       aDataOption_arc
 0001:803A8B94       aGbgvgkvkslvsvVV_2
 0001:803A8BA8       aStolenpeach_th
 0001:803A8BB8       aOpeninga_thp
 0001:803A8BC8       aNozurua_thp
 0001:803A8BD4       aOpeningba_thp
 0001:803A8BE4       aKagemario_thp
 0001:803A8BF4       aStolennozuru_t
 0001:803A8C08       aPakkun_thp
 0001:803A8C14       aMechakuppa_thp
 0001:803A8C24       aKuppajr_thp
 0001:803A8C30       aEntrance_thp
 0001:803A8C40       aDemogeso_thp
 0001:803A8C50       aBath_thp
 0001:803A8C5C       aAutodemoa_thp
 0001:803A8C6C       aOpeningbc_thp
 0001:803A8C7C       aEpilogue_thp
 0001:803A8C8C       aStaffroll_thp
 0001:803A8C9C       aOmakea_thp
 0001:803A8CA8       aOmakeb_thp
 0001:803A8CB4       aNozurub_thp
 0001:803A8CC0       aOpeningbb_thp
 0001:803A8CD0       aSubtitle
 0001:803A8CDC       aDataSubtitle_a
 0001:803A8CF0       aDataEndsave_ar
 0001:803A8D04       aRootViewObjs_0
 0001:803A8D14       aGroup2d_0
 0001:803A8D20       aEx128x144_q0_t
 0001:803A8D34       aThprender
 0001:803A8D40       aEndingstring
 0001:803A8D50       aCardSave
 0001:803A8D5C       aDstagedisp_0
 0001:803A8D6C       aTorthoproj_0
 0001:803A8D7C       aScreen2d_0
 0001:803A8D88       aTdstagegroup_0
 0001:803A8D98       aFrmgxset_0
 0001:803A8DA4       aTdirector_2
 0001:803A8DB0       aEnding_1_blo
 0001:803A8DC0       aGigcgggGlbGwgg
 0001:803A8EE0       aSkyDrawSnaptime
 0001:803A8EF4       aPollutionmodelDrawSnaptime
 0001:803A8F14       aShadowDrawSnaptime
 0001:803A8F2C       aSilhouetteDrawSnaptime
 0001:803A8F48       aCharaDrawSnaptime
 0001:803A8F5C       aIndirectDrawSnaptime
 0001:803A8F74       aParticleDrawSnaptime
 0001:803A8F8C       aSceneMapScene_ral
 0001:803A8FA4       aSceneMapTables_bin
 0001:803A8FBC       aSceneMapScene_bin
 0001:803A8FD4       aCamera1
 0001:803A8FE0       aGcgxgugggoglbGv
 0001:803A8FF4       aCommonSp
 0001:803A9000       aEventwatcher
 0001:803A9010       aSceneMapSp
 0001:803A9020       aTPagvbGu
 0001:803A902C       aPerfEventGroup
 0001:803A9040       aFrmgxset_2
 0001:803A904C       aDrawBufferGroup
 0001:803A9060       aDrawbufSkyOpa
 0001:803A9070       aDrawbufSkyXlu
 0001:803A9080       aDrawbufGraffito
 0001:803A9094       aTPagvbGuxIcgxgebGw
 0001:803A90AC       aGxgngkbGugegngxgGg_0
 0001:803A90C4       aTPagvbGuviewport
 0001:803A90D8       aDataPerformlists_bin
 0001:803A90F0       aPerformlistMovement
 0001:803A9108       aPerformlistCalcanim
 0001:803A9120       aPerformlistGx
 0001:803A9130       aPerformlistSilhouette
 0001:803A9148       aPerformlistGxPost
 0001:803A915C       aShinePflstMov
 0001:803A916C       aShinePflstAnm
 0001:803A917C       aGxgyglgegigvbGu
 0001:803A9190       aGmgugygtgmga
 0001:803A91A0       aSCzoXXigognb
 0001:803A91B4       aIqsbgjbGGl
 0001:803A92B8       aSceneMapTargetarrowTargetarrow_red_bmd
 0001:803A92E4       aSceneMapTarget
 0001:803A92FC       aTarget_arrow_s
 0001:803A9310       aJkraramarchive
 0001:803A9324       aBadSequence
 0001:803A9340       aJkraram_cpp
 0001:803A934C       aAddressNot32by
 0001:803A936C       aBadAramBlockSp
 0001:803A938C       aBadSync_YouDSe
 0001:803A9448       aJkrdvdarchive_
 0001:803A945C       aSorryNotPrepar
 0001:803A9484       aBadSequence_1
 0001:803A94A0       aJkrdvdfile_cpp
 0001:803A94B0       aCannotCloseDvd
 0001:803A94C8       aBadSizeD
 0001:803A94D8       aCannotAllocMem
 0001:803A9500       aAddr08xBadHeap
 0001:803A952C       aAddr08xBadNext
 0001:803A955C       aAddr08xBadPrev
 0001:803A9588       aAddr08xBadUsed
 0001:803A95B4       aAddr08xBadBloc
 0001:803A95DC       aBadTotalMemory
 0001:803A960C       aThereIsSomeErr
 0001:803A9634       aJkrexpheap_cpp
 0001:803A9644       aErrorAppenduse
 0001:803A9660       aHeapMayBeBroke
 0001:803A9684       aBadBlock
 0001:803A9694       aAttrAddressSiz
 0001:803A96CC       aUsedBlocks
 0001:803A96DC       aXxxxx08xAbort
 0001:803A9718       aS08x08x3d3d08x
 0001:803A9740       aFreeBlocks
 0001:803A9750       aDDBytes6_2fUse
 0001:803A977C       aJkrexpheap
 0001:803A9798       aAlignGroupSize
 0001:803A97C8       aFreefirst
 0001:803A97DC       a08x
 0001:803A97E8       a2x3d6x08x08x
 0001:803A9804       aFreelast
 0001:803A9818       aUsedfirst
 0001:803A982C       aUsedlast
 0001:803A9840       aEnd
 0001:803A9858       aXXXXX
 0001:803A9868       aArenaloXArenah
 0001:803A9880       aJkrheap_cpp
 0001:803A9890       aJkrmemarchive_
 0001:803A98A4       aBadSequence_0
 0001:803A98C0       aAllocfromheadC
 0001:803A98F4       aAllocfromtailC
 0001:803A9928       aFreeCannotFree
 0001:803A9950       aResizeCannotRe
 0001:803A9980       aGetsizeCannotG
 0001:803A99B0       aCheckBadTotalM
 0001:803A99E4       aJkrsolidheapDu
 0001:803A99F8       aAttrAddressS_0
 0001:803A9A10       aHead08x08x
 0001:803A9A24       aTail08x08x
 0001:803A9A38       aDDBytes6_2fU_0
 0001:803A9A58       aAllocCannotAll
 0001:803A9A84       aFreetailFreeta
 0001:803A9AA8       aResizeCannot_0
 0001:803A9AD8       aGetfreesizeCan
 0001:803A9B28       aSystemReset
 0001:803A9B38       aMachineCheck
 0001:803A9B48       aExternalInterr
 0001:803A9B5C       aAlignment
 0001:803A9B68       aFloatingPoint
 0001:803A9B78       aDecrementer
 0001:803A9B84       aSystemCall
 0001:803A9B90       aPerformaceMoni
 0001:803A9BA4       aBreakPoint
 0001:803A9BB0       aSystemInterrup
 0001:803A9BC4       aThermalInterru
 0001:803A9BD8       aProtection
 0001:803A9BE4       aF02dNan
 0001:803A9BF8       aF02dInf
 0001:803A9C08       aF02dInf_0
 0001:803A9C18       aF02d0_0
 0001:803A9C2C       aF02d_3e
 0001:803A9C38       aFpr
 0001:803A9C60       aTrace
 0001:803A9C88       aAddressBackcha
 0001:803A9CA8       aSuppressTrace_
 0001:803A9CBC       a08x08x08x
 0001:803A9CD4       aContext08xhSEx
 0001:803A9CF4       aSrr008xhSrr108
 0001:803A9D10       aDsisr08xhDar08
 0001:803A9D2C       aGpr
 0001:803A9D54       aR02d08xhR02d08
 0001:803A9D7C       aR02d08xhR02d_0
 0001:803A9D98       aSSXSectionD
 0001:803A9DB0       aGprmap
 0001:803A9DDC       aR02d08xh
 0001:803A9DEC       aNoInformation
 0001:803A9E00       aNoRegisterWhic
 0001:803A9E28       aMsr08xhFpscr08
 0001:803A9E44       aExceptionOccur
 0001:803A9EA0       a08x_S08xXhS
 0001:803A9EC0       aA_7
 0001:803A9ED0       aJutpalette_cpp
 0001:803A9EE0       aJuttextureTlut
 0001:803A9F00       aJ2dscreen_cpp
 0001:803A9F10       aScrnResourceIs
 0001:803A9F2C       aThereIsAUnknow
 0001:803A9FE8       aJkrdvdripper_c
 0001:803A9FFC       aSorryNotPrep_0
 0001:803AA024       aNotSupportSzpW
 0001:803AA0B8       aDirectionX
 0001:803AA0C8       aSourceX
 0001:803AA0D8       aDestinationX
 0001:803AA0EC       aLengthX
 0001:803AA0FC       aJkrarampiece_c
 0001:803AA110       aJkraramstream_
 0001:803AA128       aJutresfontUnkn
 0001:803AA148       aUnknownDataBlo
 0001:803AA15C       aBBibhbfbrbubxb
 0001:803AA220       aFontEncodeType
 0001:803AA238       aIplromFontdata
 0001:803AA258       aLightmap
 0001:803AA268       aDrawbufobj
 0001:803AA278       aEfbctrldisp
 0001:803AA288       aTviewobjptrlis
 0001:803AA2A0       aIdxlight
 0001:803AA2AC       aAmbcolor
 0001:803AA2C4       aGroupobj
 0001:803AA2D0       aTviewobjptrlistt
 0001:803AA2E4       aSmj3dscn
 0001:803AA2F0       aSmj3dscn_0
 0001:803AA2FC       aPolarcamera
 0001:803AA308       aTpolarcamera
 0001:803AA318       aSmj3dact
 0001:803AA324       aSmj3dact_0
 0001:803AA330       aSmplchara
 0001:803AA33C       aTcharacter
 0001:803AA34C       aIdxlight_0
 0001:803AA358       aIdxlight_1
 0001:803AA364       aLightary
 0001:803AA370       aLightary_0
 0001:803AA37C       aAmbcolor_0
 0001:803AA388       aAmbcolor_1
 0001:803AA394       aAmbary
 0001:803AA3A0       aNamerefgrp
 0001:803AA3AC       aTnamerefptrlistt
 0001:803AA3C0       aDrawbufobj_0
 0001:803AA3CC       aEfbctrltex
 0001:803AA3D8       aEfbctrltex_0
 0001:803AA3E8       aViewport_0
 0001:803AA3F4       aViewport_1
 0001:803AA400       aJdrrendermode_
 0001:803AA414       aFutureNotImp_0
 0001:803AA42C       aFutureNotImple
 0001:803AA448       aViewport
 0001:803AA454       aCamconnecter
 0001:803AA468       aDefault_bmd_8
 0001:803AA478       aDefault_bck
 0001:803AA488       aLightmap_0
 0001:803AA498       aJaiinfo_asn
 0001:803AA550       aJaiinit_bld
 0001:803AA560       aSeqsJaiseinf_b
 0001:803AA574       aSeqsJaisqinf_b
 0001:803AA588       aSeqsJaistinf_b
 0001:803AA59C       aJaiinit_aaf
 0001:803AA5A8       aJaiarcs_hed
 0001:803AA5B8       aUpdateDac
 0001:803AA5D8       aSfrUpdate
 0001:803AA5E4       aDspMain
 0001:803AA5F0       aA_8
 0001:803AA6C0       aMonoMix
 0001:803AA6CC       aMonoWMix
 0001:803AA7D8       aPriorTaskIsNot
 0001:803AA7F4       aAlreadyInitedP
 0001:803AA818       aAudioResumed
 0001:803AA828       aYieldHandler
 0001:803AA838       aDoneDspTaskX
 0001:803AA84C       aAudioYieldStar
 0001:803AA860       aAudioYieldFini
 0001:803AA874       aOsdsp_task_c
 0001:803AA884       a__dsphandlerUn
 0001:803AA8C8       aYieldtjvV
 0001:803AAD4C       aVkOyx
 0001:803AB558       aMetrotrkForDol
 0001:803AB684       __vtbl__Q26JDrama8TViewObj
 0001:803AB70C       __vtbl__24TNerveBase<10TLiveActor>
 0001:803AB71C       __vtbl__10TTakeActor
 0001:803ABD30       __vtbl__11TParamRT<f>
 0001:803ABD3C       __vtbl__10TParamT<f>
 0001:803ABD48       __vt__11TParamRT<l>
 0001:803ABD54       __vtbl__10TParamT<l>
 0001:803AC450       __vtbl__14MAnmSoundMario
 0001:803AC460       __vtbl__9MAnmSound
 0001:803AC4C0       __vtbl__6MSound
 0001:803AC4F8       jpt_8001384C
 0001:803AC550       jpt_80016AE4
 0001:803AC61C       jpt_80017FEC
 0001:803AC638       jpt_800183A8
 0001:803AC68C       jpt_8001835C
 0001:803ACA20       jpt_8001C910
 0001:803ACBF8       jpt_80022448
 0001:803ACCC4       jpt_80022830
 0001:803ACDE8       __vtbl__15CPolarSubCamera
 0001:803ACEE0       jpt_80026714
 0001:803ACFC8       jpt_800267AC
 0001:803AD0D8       __vtbl__12TParamRT<Uc>
 0001:803AD0E4       __vtbl__11TParamT<Uc>
 0001:803AD0F0       __vtbl__11TParamRT<s>
 0001:803AD0FC       __vtbl__10TParamT<s>
 0001:803AD108       __vtbl__10TLensFlare
 0001:803AD154       __vtbl__12J3DFrameCtrl
 0001:803AD194       __vtbl__17TDrawSyncCallback
 0001:803AD43C       jpt_8003375C
 0001:803AD560       jpt_800337E8
 0001:803AD664       jpt_80033948
 0001:803AD788       jpt_80033998
 0001:803AD958       __vtbl__10TConductor
 0001:803AE404       __vtbl__7TEMario
 0001:803AE518       __vtbl__11TSpineEnemy
 0001:803AE638       __vtbl__24TSpineBase<10TLiveActor>
 0001:803AE648       __vtbl__23TSolidStack<9TPathNode>
 0001:803AE7F0       __vtbl__29TSpcTypedBinary<10TLiveActor>
 0001:803AE800       __vtbl__13TEnemyManager
 0001:803AF010       jpt_800408E4
 0001:803AF04C       jpt_80040A74
 0001:803AF0F4       __vtbl__10JSUIosBase
 0001:803AFB48       grDummyRail
 0001:803AFC14       __vtbl__9TGraphWeb
 0001:803AFF7C       __vtbl__13TFireHamuKuri
 0001:803B0144       __vtbl__18TBossDangoHamuKuri
 0001:803B23A8       __vtbl__11TSmallEnemy
 0001:803B2550       __vtbl__18TSmallEnemyManager
 0001:803B27B0       __vtbl__12TWalkerEnemy
 0001:803B29E8       jpt_80076A80
 0001:803B2A08       jpt_80078888
 0001:803B2AFC       __vtbl__10TBossGesso
 0001:803B330C       jpt_80081838
 0001:803B4260       __vtbl__20TStageEnemyInfoTable
 0001:803B4280       __vtbl__53TNameRefPtrAryT<15TStageEnemyInfo,Q26JDrama8TNameRef>
 0001:803BB048       jpt_800F3334
 0001:803BBEC0       jpt_80100FA8
 0001:803BBEEC       jpt_801012E0
 0001:803BBF18       jpt_80102108
 0001:803BC480       hauntleg_bastable
 0001:803BC498       __vtbl__19TNerveHauntLegHaunt
 0001:803BC4A8       __vtbl__9THauntLeg
 0001:803BC660       __vtbl__14THauntedObject
 0001:803BC704       __vtbl__16THauntLegManager
 0001:803BC760       __vtbl__20TAreaCylinderManager
 0001:803BC7B8       jpt_80109C94
 0001:803BD038       aSs
 0001:803BD040       aSs_0
 0001:803BD048       aA_9
 0001:803BD04C       aIsAa
 0001:803BD054       aA_10
 0001:803BD058       aA_11
 0001:803BD060       aA_12
 0001:803BD064       aA_13
 0001:803BD53C       __vtbl__13TYumboManager
 0001:803BDDF0       jpt_80124A0C
 0001:803C0328       jpt_80140C8C
 0001:803C0354       jpt_80145C08
 0001:803C03C8       __vtbl__8TTalk2D2
 0001:803C03EC       jpt_80151CE0
 0001:803C07C4       jpt_80157F7C
 0001:803C09EC       jpt_80163AD8
 0001:803C0AC4       jpt_8016C0AC
 0001:803C0AE4       jpt_8016D8DC
 0001:803C0B0C       jpt_8016CBEC
 0001:803C0E7C       jpt_80172CDC
 0001:803C0F5C       __vtbl__Q26JDrama55TViewObjPtrListT<Q26JDrama8TViewObj,Q26JDrama8TViewObj>
 0001:803C106C       jpt_801793D8
 0001:803C1148       aWouldYouLikeTo
 0001:803C117C       aGm0ScreenDispl
 0001:803C11EC       aGm0ScreenDis_0
 0001:803C1464       jpt_8017F7C8
 0001:803C15D0       __vtbl__11TJointModel
 0001:803C1608       __vtbl__18TJointModelManager
 0001:803C1630       __vtbl__9TJointObj
 0001:803C1658       __vtbl__4TMap
 0001:803C167C       jpt_80189E88
 0001:803C16C0       __vtbl__16TBGCheckListWarp
 0001:803C16CC       __vtbl__12TBGCheckList
 0001:803C16D8       __vtbl__17TMapCollisionWarp
 0001:803C16FC       __vtbl__17TMapCollisionMove
 0001:803C1720       __vtbl__19TMapCollisionStatic
 0001:803C1744       __vtbl__17TMapCollisionBase
 0001:803C1790       __vtbl__9TMapEvent
 0001:803C1824       __vtbl__19TMapEventSinkBianco
 0001:803C1878       __vtbl__29TMapEventSinkInPollutionReset
 0001:803C18CC       __vtbl__24TMapEventSinkInPollution
 0001:803C1920       __vtbl__13TMapEventSink
 0001:803C1978       __vtbl__17TMirrorMapDrawBuf
 0001:803C1B30       __vtbl__17TMapObjSoundGroup
 0001:803C1B54       jpt_8019659C
 0001:803C1B70       __vtbl__14TMapModelActor
 0001:803C1C14       __vtbl__13TMapStaticObj
 0001:803C1E4C       __vtbl__17TPollutionManager
 0001:803C1E74       jpt_8019D778
 0001:803C1E90       __vtbl__25TPollutionLayerWallMinusX
 0001:803C1EEC       __vtbl__25TPollutionLayerWallMinusZ
 0001:803C1F48       __vtbl__13TPollutionObj
 0001:803C2110       x_offset_table$2432
 0001:803C2138       z_offset_table$2433
 0001:803C2160       __vtbl__15TPollutionLayer
 0001:803C21BC       __vtbl__23TPollutionLayerWallBase
 0001:803C2218       __vtbl__24TPollutionLayerWallPlusX
 0001:803C2274       __vtbl__24TPollutionLayerWallPlusZ
 0001:803C22D0       __vtbl__19TPollutionLayerWave
 0001:803C2330       __vtbl__14TPollutionTest
 0001:803C23F8       __vtbl__26TDolpicEventRiccoMammaGate
 0001:803C2438       __vtbl__22TDolpicEventBiancoGate
 0001:803C25DC       jpt_801A6190
 0001:803C2AB8       __vtbl__11TMapObjBase
 0001:803C3518       bottle_large_data
 0001:803C3608       a33
 0001:803C363C       nozzle_normal_physical_info
 0001:803C3684       yoshi_whistle_item_data
 0001:803C3778       nozzle_back_item_data
 0001:803C37B4       coin_physical_data
 0001:803C37F0       coin_red_data
 0001:803C382C       coin_blue_data
 0001:803C39D4       nozzle_rocket_item_data
 0001:803C4274       supermario_block_data
 0001:803C45F8       cluster_block_data
 0001:803C4940       BananaTree_data
 0001:803C84CC       FileLoadBlockA_data
 0001:803C8510       aA8lsa8mxaaA8liaaA
 0001:803C8544       FileLoadBlockC_data
 0001:803C8580       sObjDataTable
 0001:803C8B20       __vtbl__14TMapObjGeneral
 0001:803C8D08       jpt_801B3F58
 0001:803C8D30       item_names
 0001:803C8D48       __vtbl__18TMapObjBaseManager
 0001:803C8EEC       __vtbl__14TMapObjManager
 0001:803C9058       aAMa
 0001:803C939C       jpt_801BC5E4
 0001:803C93E0       jpt_801BD69C
 0001:803C9610       __vtbl__9TEggYoshi
 0001:803C97EC       __vtbl__6TShine
 0001:803C9BB4       __vtbl__8TCoinRed
 0001:803CA160       __vtbl__5TCoin
 0001:803CA344       __vtbl__5TItem
 0001:803CA528       __vtbl__12TItemManager
 0001:803CA6CC       __vtbl__14TRedCoinSwitch
 0001:803CA830       __vtbl__13TMapObjSwitch
 0001:803CAF08       __vtbl__18TMapObjChangeStage
 0001:803CEFA4       jpt_801D28CC
 0001:803D2818       jpt_801E23F4
 0001:803D29B4       __vtbl__12TRandomFruit
 0001:803D2BA4       __vtbl__11TResetFruit
 0001:803D2D94       __vtbl__11TMapObjBall
 0001:803D2F88       __vtbl__17TAirportEventSink
 0001:803D3F70       gateMActorNames
 0001:803D4050       jpt_801EB65C
 0001:803D514C       __vtbl__11TRailMapObj
 0001:803D6D7C       __vtbl__12TMushroom1up
 0001:803D6EE0       __vtbl__8TWoodBox
 0001:803D7050       __vtbl__13TBreakHideObj
 0001:803D7D6C       __vtbl__12THideObjBase
 0001:803D82F0       jpt_80204184
 0001:803D8344       jpt_80203F38
 0001:803D8394       jpt_80203890
 0001:803D83F0       jpt_80205D40
 0001:803D8448       __vtbl__8TBaseNPC
 0001:803D855C       jpt_80206350
 0001:803D85B4       jpt_802075B0
 0001:803D85DC       jpt_802074A4
 0001:803D8638       jpt_8020793C
 0001:803D8694       jpt_80207BF0
 0001:803D8748       jpt_8020A5E0
 0001:803D9280       __vtbl__21TMareJellyFishManager
 0001:803D9C58       jpt_80212C64
 0001:803D9CB8       __vtbl__10TLiveActor
 0001:803D9DB8       jpt_8021AA90
 0001:803D9F68       __vtbl__12TLiveManager
 0001:803D9FA8       __vtbl__11TObjManager
 0001:803D9FD8       __vtbl__Q26JDrama10TCharacter
 0001:803D9FFC       __vtbl__9TObjChara
 0001:803DA3E0       __vtbl__10TSpcInterp
 0001:803DA3F4       __vtbl__21TSpcStack<9TSpcSlice>
 0001:803DA400       __vtbl__13TSpcStack<Ul>
 0001:803DA40C       __vtbl__10TSpcBinary
 0001:803DA4C8       __vtbl__13TSMSSmplChara
 0001:803DA4F0       __vtbl__9THitActor
 0001:803DA774       __vt__11TLightMario
 0001:803DB10C       __vtbl__19TMBindShadowManager
 0001:803DB460       aYsYsCffCffLA
 0001:803DB47C       aA_30
 0001:803DB4D8       aS33XqYs
 0001:803DB6CC       aLA
 0001:803DB6D4       aS33L
 0001:803DB894       aLA_0
 0001:803DB89C       aS33L_0
 0001:803DB928       channelDataTbl
 0001:803DBB10       jpt_80235F40
 0001:803DBD58       __vtbl__35MActorAnmEach<18J3DAnmTransformKey>
 0001:803DBE48       __vtbl__12MActorAnmBck
 0001:803DBE70       __vtbl__13MActorAnmBase
 0001:803DBE98       __vtbl__13JKRFileFinder
 0001:803DBEE0       __vtbl__15SampleCtrlJoint
 0001:803DBEEC       __vtbl__18SampleCtrlMaterial
 0001:803DBEF8       __vtbl__15SampleCtrlShape
 0001:803DBF08       __vtbl__19SampleCtrlModelData
 0001:803DBF18       __vtbl__13M3UModelMario
 0001:803DBF88       marioAnimeFiles
 0001:803DC5C0       gMarioAnimeData
 0001:803DD0A0       jpt_802476F0
 0001:803DD140       jpt_8024EDCC
 0001:803DD168       jpt_80251058
 0001:803DD190       jpt_802530B0
 0001:803DD1B4       jpt_80252C94
 0001:803DD290       cParticleFileNames
 0001:803DD310       __vtbl__12TYoshiTongue
 0001:803DD3D4       jpt_80267940
 0001:803DD4A0       __vtbl__9TWaterGun
 0001:803DD4AC       jpt_8026AF6C
 0001:803DD4D0       __vtbl__13TNozzleDeform
 0001:803DD4F8       __vtbl__14TNozzleTrigger
 0001:803DD520       __vtbl__11TNozzleBase
 0001:803DD548       jpt_8026E378
 0001:803DD56C       jpt_8026E87C
 0001:803DD590       __vtbl__12TMarioEffect
 0001:803DD660       __vtbl__6TMario
 0001:803DEB60       jpt_80282DDC
 0001:803DEC50       __vtbl__10TBaseParam
 0001:803DEC88       __vtbl__21TMarioParticleManager
 0001:803DED68       __vtbl__13TEventWatcher
 0001:803DED90       __vtbl__32TSpcTypedInterp<13TEventWatcher>
 0001:803DEDB8       jpt_80294818
 0001:803DEDE4       jpt_80294910
 0001:803DEE10       jpt_80294A50
 0001:803DEE38       jpt_80294B40
 0001:803DEE64       jpt_80294D70
 0001:803DEFD8       jpt_80297704
 0001:803DEFF8       jpt_80298298
 0001:803DF02C       jpt_80298BF4
 0001:803DF05C       jpt_80298EC0
 0001:803DF090       jpt_8029A07C
 0001:803DF0C8       __vtbl__12TMarDirector
 0001:803DF138       __vtbl__14TMarNameRefGen
 0001:803DF148       __vtbl__53TNameRefAryT<18TStagePositionInfo,Q26JDrama8TNameRef>
 0001:803DF2C8       __vtbl__12TPerformList
 0001:803DF3F0       jpt_802A5B90
 0001:803DF424       jpt_802A63E0
 0001:803DF44C       __vtbl__13TMarioGamePad
 0001:803DF498       shineStageTable
 0001:803DF4D8       exShineTable
 0001:803DF528       __vtbl__10TTHPRender
 0001:803DF9C8       jpt_802B170C
 0001:803DFA00       movies
 0001:803DFA50       __vtbl__14TMovieDirector
 0001:803DFAE0       jpt_802B77E8
 0001:803DFB08       jpt_802B992C
 0001:803DFB30       jpt_802B97FC
 0001:803DFB70       jpt_802BBD4C
 0001:803DFB8C       jpt_802BBA1C
 0001:803DFBB4       jpt_802BB9CC
 0001:803DFEB8       __vtbl__11JKRDisposer
 0001:803DFF88       __vtbl__12JKRArcFinder
 0001:803DFF98       __vtbl__13JKRFileLoader
 0001:803DFFD8       __vtbl__7JKRHeap
 0001:803E0110       __vtbl__9JKRThread
 0001:803E0120       __vtbl__21JSURandomOutputStream
 0001:803E0148       __vtbl__15JSUOutputStream
 0001:803E0160       __vtbl__20JSURandomInputStream
 0001:803E0184       __vtbl__14JSUInputStream
 0001:803E01A0       __vtbl__21JSUMemoryOutputStream
 0001:803E01C8       __vtbl__20JSUMemoryInputStream
 0001:803E01F0       __vtbl__18JSUFileInputStream
 0001:803E0540       __vtbl__7JUTFont
 0001:803E0578       channel_mask
 0001:803E0588       __vtbl__10JUTGamePad
 0001:803E0598       __vtbl__7J2DPane
 0001:803E05C8       __vtbl__10J2DPicture
 0001:803E05F8       jpt_802CEE60
 0001:803E0658       __vtbl__8J2DPrint
 0001:803E0668       jpt_802CFB88
 0001:803E06B8       __vtbl__12J2DSetScreen
 0001:803E06EC       __vtbl__9J2DScreen
 0001:803E0720       __vtbl__10J2DTextBox
 0001:803E07E0       __vtbl__13J3DSkinDeform
 0001:803E07F0       __vtbl__8J3DJoint
 0001:803E0EC8       __vtbl__10J3DPEBlock
 0001:803E10A8       __vtbl__13J3DColorBlock
 0001:803E1110       jpt_802DD0F8
 0001:803E115C       __vtbl__8J3DModel
 0001:803E1178       __vtbl__12J3DModelData
 0001:803E1188       __vtbl__7J3DNode
 0001:803E1320       __vt__18J3DAnmTransformKey
 0001:803E1334       __vt__15J3DAnmTransform
 0001:803E1354       __vtbl__10J3DAnmBase
 0001:803E1388       __vtbl__18J3DModelLoader_v26
 0001:803E13B0       __vtbl__10J3DTexture
 0001:803E13BC       __vtbl__14J3DModelLoader
 0001:803E1424       __vtbl__16J3DAnmTexPattern
 0001:803E1448       __vtbl__14J2DGrafContext
 0001:803E14D8       __vtbl__15J3DVertexBuffer
 0001:803E1560       jpt_802EE024
 0001:803E15D8       j3dDefaultTexCoordInfo
 0001:803E17A8       __vtbl__11J3DTexNoAnm
 0001:803E1814       __vtbl__10JUTResFont
 0001:803E18A8       jpt_802F38E8
 0001:803E1920       __vtbl__Q26JDrama6TActor
 0001:803E19C0       __vtbl__Q26JDrama10TOrthoProj
 0001:803E1A94       __vtbl__Q26JDrama13TLookAtCamera
 0001:803E1B88       __vtbl__Q26JDrama12TPolarCamera
 0001:803E1C64       __vtbl__Q26JDrama7TCamera
 0001:803E1D28       __vtbl__Q26JDrama10TSmplChara
 0001:803E1D50       __vtbl__Q26JDrama9TDirector
 0001:803E1DD0       __vtbl__Q26JDrama11TDrawBufObj
 0001:803E1EE8       __vt__Q26JDrama9TLightMap
 0001:803E1F30       __vtbl__Q26JDrama9TAmbColor
 0001:803E20F0       __vtbl__Q26JDrama8TNameRef
 0001:803E2110       __vblt__Q26JDrama55TNameRefPtrListT<Q26JDrama8TNameRef,Q26JDrama8TNameRef>
 0001:803E2140       __vtbl__Q26JDrama10TPlacement
 0001:803E2250       __vtbl__Q26JDrama9TSmJ3DScn
 0001:803E2280       __vtbl__Q26JDrama14TViewConnecter
 0001:803E24B0       __vtbl__13JAIAnimeSound
 0001:803E24C0       jpt_80300FF8
 0001:803E25D0       __vtbl__8JAISound
 0001:803E2790       aBanks
 0001:803E2824       jpt_803120A4
 0001:803E2844       jpt_80312048
 0001:803E3068       jpt_803180F0
 0001:803E3660       jpt_8031C0BC
 0001:803E3694       jpt_8031C348
 0001:803E36D8       jpt_8031D100
 0001:803E3CA0       __vtbl__16J3DMaterialTable
 0001:803E3CB0       jpt_80322F58
 0001:803E3CCC       jpt_803247FC
 0001:803E3CF8       jpt_803274F8
 0001:803E3D18       __vtbl__12JPADragField
 0001:803E3D30       __vtbl__14JPARandomField
 0001:803E3D48       __vtbl__18JPAConvectionField
 0001:803E3D60       __vtbl__14JPAVortexField
 0001:803E3D78       __vtbl__14JPANewtonField
 0001:803E3D90       __vtbl__14JPAMagnetField
 0001:803E3DA8       __vtbl__11JPAAirField
 0001:803E3DC0       __vtbl__15JPAGravityField
 0001:803E3DD8       __vtbl__12JPABaseField
 0001:803E3DF0       __vtbl__11JPAParticle
 0001:803E3E48       __vtbl__15JPABaseParticle
 0001:803E3EA0       jpt_8032AA88
 0001:803E3ECC       jpt_8032A7A4
 0001:803E4590       __vtbl__Q26JStage13TAmbientLight
 0001:803E45C8       __vtbl__Q26JStage7TCamera
 0001:803E4650       __vtbl__Q26JStage6TActor
 0001:803E4718       __vtbl__Q26JStage7TObject
 0001:803E4748       __vtbl__Q26JStage7TSystem
 0001:803E6558       jpt_8033A854
 0001:803E65DC       jpt_8033AB0C
 0001:803E6660       jpt_8033AFDC
 0001:803E6730       jpt_8033AD6C
 0001:803E6778       jpt_8033B804
 0001:803E6860       jpt_8033EA24
 0001:803E687C       jpt_8033EC20
 0001:803E6928       aDbexceptiondes
 0001:803E6940       aDolphinOsRevis
 0001:803E6960       aKernelBuiltSS
 0001:803E6978       aJun52002
 0001:803E6984       a020912
 0001:803E6990       aConsoleType
 0001:803E69A0       aRetailD
 0001:803E69AC       aMacEmulator
 0001:803E69BC       aPcEmulator
 0001:803E69CC       aEppcArthur
 0001:803E69DC       aEppcMinnow
 0001:803E69EC       aDevelopmentHwD
 0001:803E6A00       aMemoryDMb
 0001:803E6A10       aArena0xX0xX
 0001:803E6B00       aOscheckheapFai
 0001:803E6B24       aOscheckheapF_0
 0001:803E6B5C       aOscheckheapF_1
 0001:803E6B84       aOscheckheapF_2
 0001:803E6BD4       aOscheckheapF_3
 0001:803E6C14       aOscheckheapF_4
 0001:803E6C4C       aOscheckheapF_5
 0001:803E6C98       aOscheckheapF_6
 0001:803E6CCC       aOscheckheapF_7
 0001:803E6D0C       aOscheckheapF_8
 0001:803E6D48       aOscheckheapF_9
 0001:803E6D90       aOscheckheap_10
 0001:803E6DF0       aOscheckheap_11
 0001:803E6E1C       aOsdumpheapD
 0001:803E6E30       aInactive
 0001:803E6E44       aAddrSizeEndPre
 0001:803E6E60       aAllocated
 0001:803E6E74       aXDXXX
 0001:803E6E84       aFree
 0001:803E6F18       aL2InvalidateSh
 0001:803E6F44       aMachineCheckRe
 0001:803E6F5C       aHid20xXSrr10xX
 0001:803E6F78       aMachineCheckWa
 0001:803E6FA8       aDmaerrorhandle
 0001:803E6FE4       aTheFollowingEr
 0001:803E701C       aRequestedALock
 0001:803E705C       aDmaAttemptedTo
 0001:803E7088       aDmaMissedInDat
 0001:803E70A8       aDmaQueueOverfl
 0001:803E70C4       aL1ICachesIniti
 0001:803E70E0       aL1DCachesIniti
 0001:803E70FC       aL2CacheInitial
 0001:803E7114       aLockedCacheMac
 0001:803E7148       aContext0x08x
 0001:803E718C       aR2d0x08x14dR2d
 0001:803E71BC       aLr0x08xCr0x08x
 0001:803E71EC       aSrr00x08xSrr10
 0001:803E721C       aGqrs
 0001:803E7230       aGqrD0x08xGqrD0
 0001:803E7254       aFprs
 0001:803E7268       aFrDDFrDD
 0001:803E7284       aPsfs
 0001:803E7298       aPsD0xXPsD0xX
 0001:803E72B8       aAddressBackCha
 0001:803E72E0       a0x08x0x08x0x08
 0001:803E72FC       aFpuUnavailable
 0001:803E7320       aInSOnLineD_
 0001:803E7338       aAddressBackC_0
 0001:803E7360       a0x08x0x08x0x_0
 0001:803E737C       aNonRecoverable
 0001:803E739C       aUnhandledExcep
 0001:803E73B4       aDsisr0x08xDar0
 0001:803E73E8       aTb0x016llx
 0001:803E73F8       aInstructionAt0
 0001:803E7458       aAttemptedToFet
 0001:803E74A4       aInstructionA_0
 0001:803E7508       aProgramExcepti
 0001:803E7568       aAiDmaAddress0x
 0001:803E7588       aAramDmaAddress
 0001:803E75A8       aDiDmaAddress0x
 0001:803E75C4       aLastInterruptD
 0001:803E75FC       jpt_8034492C
 0001:803E81F0       aDvdconvertentr
 0001:803E82B8       aWarningDvdopen
 0001:803E82F0       aDvdreadasyncSp
 0001:803E8324       aDvdreadSpecifi
 0001:803E8354       aDvdseekOffsetI
 0001:803E837C       aWarningDvdop_0
 0001:803E83B8       aDvdpreparestre
 0001:803E8420       aDvdpreparest_0
 0001:803E8478       aDvdpreparest_1
 0001:803E84D4       aDvdpreparest_2
 0001:803E8538       aDvdpreparest_3
 0001:803E8588       aDvdpreparest_4
 0001:803E85E0       aAppBootedViaJt
 0001:803E85F8       aLoadFst
 0001:803E8604       aAppBootedFromB
 0001:803E8620       aBootrom
 0001:803E862C       jpt_8034D064
 0001:803E864C       jpt_8034D214
 0001:803E868C       jpt_8034E24C
 0001:803E86C0       jpt_8034E5D4
 0001:803E8740       aGameName___CCC
 0001:803E875C       aCompany_____CC
 0001:803E8774       aDisk______D
 0001:803E8788       aGameVer____D
 0001:803E879C       aStreaming___S
 0001:803E8914       jpt_8034EFA8
 0001:803E8998       aCAUTION
 0001:803E89C4       aThisTvFormatDe
 0001:803E89F0       aTemporarySolut
 0001:803E8A1C       aIsAvailable_Pl
 0001:803E8A48       aModeInRealGame
 0001:803E8A88       aDspinitBuildDa
 0001:803E8AA8       aDec172001
 0001:803E8AB4       a182500
 0001:803E8AC0       aDspIsBootingTa
 0001:803E8AE0       a__dsp_boot_tas
 0001:803E8B10       a__dsp_boot_t_0
 0001:803E8B40       a__dsp_boot_t_1
 0001:803E8B70       a__dsp_boot_t_2
 0001:803E8BA0       a__dsp_boot_t_3
 0001:803E8BD0       a__dsp_add_task
 0001:803E8DC0       jpt_8035BFE4
 0001:803E8E28       jpt_8035C350
 0001:803E8E90       jpt_8035C840
 0001:803E8EF8       jpt_8035CACC
 0001:803E8F3C       jpt_8035CE3C
 0001:803E8F80       jpt_8035D240
 0001:803E8FC4       jpt_8035D720
 0001:803E8FE0       jpt_8035D594
 0001:803E9074       GXNtsc480Int
 0001:803E9168       jpt_8035F8D8
 0001:803E925C       jpt_8035FA2C
 0001:803E9350       jpt_8035FC7C
 0001:803E93D8       jpt_80363848
 0001:803E9434       jpt_80363418
 0001:803E94C8       jpt_803648E0
 0001:803E9530       jpt_80364F68
 0001:803E9700       gpApplication
 0001:803EC0F0       FreeAudioBufferQueue
 0001:803EC160       ActivePlayer
 0001:803EC380       PrepareReadyQueue
 0001:803EC3A0       UsedTextureSetQueue
 0001:803F43C0       hx
 0001:803F7B98       mIllegalCheckData__17TMapCollisionData
 0001:803FCBE8       gSetupThread
 0001:803FD068       gParticleFlagLoaded
 0001:803FE138       JPAEmitterInfoObj
 0001:804003D0       fragmentinfo
 0001:804003E0       atexit_funcs
 0001:804004E0       __atexit_funcs
 0001:80403298       block$16
 0001:804032C8       regs
 0001:80403460       __CARDBlock
 0001:80404160       __THPIDCTWorkspace
 0001:80404290       sAramList__11JKRAramHeap
 0001:804042B4       sVolumeList__13JKRFileLoader
 0001:804042D8       mPadList__10JUTGamePad
 0001:80404454       mPadStatus__10JUTGamePad
 0001:80404484       mPadButton__10JUTGamePad
 0001:80404544       mPadMStick__10JUTGamePad
 0001:80404584       mPadSStick__10JUTGamePad
 0001:804045DC       j3dSys
 0001:8040C110       cb__7JPADraw
 0001:8040C2BC       mChangeBlockTime__18TSmallEnemyManager
 0001:8040C6C0       mCleanedDegree__13TMapEventSink
 0001:8040C700       mAreaMinRate__15TPollutionLayer
 0001:8040C704       mSpreadArea__15TPollutionLayer
 0001:8040C708       mSpreadFrequency__15TPollutionLayer
 0001:8040C70C       mFireArea__15TPollutionLayer
 0001:8040C710       mFireEffectWaitTime__15TPollutionLayer
 0001:8040C714       mThunderArea__15TPollutionLayer
 0001:8040C718       mGlassWallArea__15TPollutionLayer
 0001:8040C71C       mGlassWallEffectTime__15TPollutionLayer
 0001:8040C778       mNormalLivingTime__14TMapObjGeneral
 0001:8040C77C       mNormalFlushTime__14TMapObjGeneral
 0001:8040C918       mFruitLivingTime__11TResetFruit
 0001:8040C91C       mScaleUpSpeed__11TResetFruit
 0001:8040C920       mBreakingScaleSpeed__11TResetFruit
 0001:8040C924       mFruitWaitTimeToAppear__11TResetFruit
 0001:8040C940       mWidth__19TMapObjGrassManager
 0001:8040CA88       mVelocityMinY__10TLiveActor
 0001:8040CC10       mStickMode__10JUTGamePad
 0001:8040CC2C       szpBufferSize__12JKRDvdRipper
 0001:8040CC34       szpBufferSize__16JKRDvdAramRipper
 0001:8040CC38       aAbvgabvgdejzdejziikliiklmnopmnoprstuFxccSsI
 0001:8040CCA8       j3dDefaultColorChanInfo
 0001:8040CD0C       seqControlBufferMax__18JAIGlobalParameter
 0001:8040CE20       fragmentID
 0001:8040CE30       next
 0001:8040CE40       __OSCurrHeap
 0001:8040CE48       __OSArenaLo
 0001:8040CE70       aDvdfs_c
 0001:8040CE78       autoInvalidation
 0001:8040CE90       ClampRegion
 0001:8040CE98       ResettingChan
 0001:8040CE9C       XPatchBits
 0001:8040EC08       aBoid
 0001:8040ED60       aTCp
 0001:8040EDAC       aMdecay
 0001:8040EE04       aCoin_0
 0001:8040EE30       aCoin_1
 0001:8040F07C       aGjgvgb
 0001:8040F10C       aITm
 0001:8040F114       aUdlctm
 0001:8040F2A4       aSD
 0001:8040F398       aMslfovy
 0001:8040F420       aMondist
 0001:8040F4A8       aSS
 0001:8040F4E8       aSS_0
 0001:8040F550       aSS_1
 0001:8040F574       aVrkk
 0001:8040F57C       aVqkk
 0001:8040F584       aVpkk
 0001:8040F6CC       a10_bomb
 0001:8040F7A8       aHgup
 0001:8040F7B0       aBdwn
 0001:8040F7B8       aBkdwn
 0001:8040F7C0       aBrake
 0001:8040F7C8       aBrend
 0001:8040F7D0       aHgdwn
 0001:8040F7D8       aFjpend
 0001:8040F7E0       aFirejmp
 0001:8040F7E8       aSdwnf
 0001:8040F7F0       aJfdwn
 0001:8040F7F8       aHang
 0001:8040F800       aHgjmp
 0001:8040F808       aHiped
 0001:8040F810       aHipsr
 0001:8040F818       aHipat
 0001:8040F820       aRun1
 0001:8040F828       a2jmed
 0001:8040F830       a2jmp2
 0001:8040F838       aJump_0
 0001:8040F840       aJmped
 0001:8040F848       a2jmp1
 0001:8040F850       aLand
 0001:8040F858       aLaend
 0001:8040F860       aLost
 0001:8040F868       aThrow
 0001:8040F870       aRaise
 0001:8040F878       aPush
 0001:8040F880       aPut
 0001:8040F884       aRoll
 0001:8040F88C       aRun2
 0001:8040F894       aShock
 0001:8040F89C       aSfbdn
 0001:8040F8A4       aSffdn
 0001:8040F8AC       aSdown
 0001:8040F8B4       aShfdn
 0001:8040F8BC       aSwait
 0001:8040F8C4       aSwlkl
 0001:8040F8CC       aSwlkr
 0001:8040F8D4       aSldct
 0001:8040F8DC       aSlpbk
 0001:8040F8E4       aSldwn
 0001:8040F8EC       aSlped
 0001:8040F8F4       aSlpla
 0001:8040F8FC       aSlip
 0001:8040F904       aSstep
 0001:8040F90C       aSqend
 0001:8040F914       aSqsta
 0001:8040F91C       aSqwat
 0001:8040F924       aTurn
 0001:8040F92C       aTrned
 0001:8040F934       aTjmp2
 0001:8040F93C       aTjmp1
 0001:8040F944       aWait
 0001:8040F94C       aWalk
 0001:8040F954       aWjmp
 0001:8040F95C       aWsld
 0001:8040F964       aPump
 0001:8040F96C       aHgpmp
 0001:8040F974       aStep1
 0001:8040F97C       aStep2
 0001:8040F984       aStep3
 0001:8040F98C       aJkick
 0001:8040F994       aDgrun
 0001:8040F99C       aCarry_p
 0001:8040F9A4       aHmov_l
 0001:8040F9AC       aHmov_r
 0001:8040F9B4       aT_wait
 0001:8040F9BC       aSinking
 0001:8040F9C4       aHold
 0001:8040F9CC       aSpin_p
 0001:8040F9D4       aSwim
 0001:8040F9DC       aDie
 0001:8040F9E0       aFloat_0
 0001:8040F9E8       aFepmp
 0001:8040F9F0       aSwpmp
 0001:8040F9F8       aThrown
 0001:8040FA00       aDraw
 0001:8040FA08       aPivot
 0001:8040FA10       aBelt_up
 0001:8040FA18       aYawn
 0001:8040FA20       aSit
 0001:8040FA24       aSit_end
 0001:8040FA2C       aSleep
 0001:8040FA34       aYo_wait
 0001:8040FA3C       aYo_walk
 0001:8040FA44       aYo_run
 0001:8040FA4C       aYo_eat
 0001:8040FA54       aYo_jump
 0001:8040FA5C       aYo_ride
 0001:8040FA64       aBh_25
 0001:8040FA68       aCh_10
 0001:8040FA6C       aDh_2
 0001:8040FA70       aEh
 0001:8040FA74       aFh
 0001:8040FA78       aGh
 0001:8040FA7C       aAb0
 0001:8040FA80       aAb1
 0001:8040FA84       aAb2
 0001:8040FB5C       aScene
 0001:8040FB64       aCC
 0001:8040FB6C       aCenter
 0001:8040FB74       aM_head
 0001:8040FB7C       aMario
 0001:8040FD44       aVV
 0001:8040FEE8       aMain
 0001:80410018       aMain_0
 0001:8041007C       aUtmUg
 0001:80410088       aMain_1
 0001:804101B0       aUS
 0001:80410284       aMa_wait
 0001:80410314       aGegmgt
 0001:804103CC       aCenter_0
 0001:804104F0       aM_dummy
 0001:804105E0       aJnt_leg
 0001:804105E8       aRarm_1
 0001:804105F0       aRarm_2
 0001:804105F8       aRarm_3
 0001:80410600       aRarm_4
 0001:80410608       aLarm_1
 0001:80410610       aLarm_2
 0001:80410618       aLarm_3
 0001:80410620       aLarm_4
 0001:80410680       aFlame
 0001:80410688       aKiller
 0001:80410778       aBwanwan
 0001:804107BC       aNXfxi
 0001:80410818       aKohana0
 0001:80410820       aKohana1
 0001:80410828       aKohana2
 0001:80410830       aA_14
 0001:80410924       aM_dummy_0
 0001:80410960       aIgaiga
 0001:804109D0       a_body
 0001:80410AEC       aRulet00_0
 0001:80410B74       aGogugl
 0001:80410BD4       aGGax
 0001:80410BF0       aNullc
 0001:80410BF8       aNullb
 0001:80410C00       aNulla
 0001:80410C08       aA_15
 0001:80410C0C       aBp
 0001:80410C10       aKQGBgoAgo
 0001:80410C28       aC0
 0001:80410C2C       aA_16
 0001:80410C38       aA_17
 0001:80410C3C       aA_18
 0001:80410C40       aCc
 0001:80410C44       aCs
 0001:80410CEC       aCcrg
 0001:80410CF4       aCcsf
 0001:80410D10       aEye1
 0001:80410D18       aEye2
 0001:80410D20       aEye3
 0001:80410D28       aEye4
 0001:80410D30       aHa1
 0001:80410D34       aHa2
 0001:80410D38       aHa3
 0001:80410D3C       aHa4
 0001:80410D40       aHa5
 0001:80410D44       aHa6
 0001:80410D48       aHa7
 0001:80410D4C       aHa8
 0001:80410D50       aSebone5
 0001:80410E04       a_mat7
 0001:80410E50       aM_dummy_1
 0001:80410E68       aCC_0
 0001:80410EE0       a_body1
 0001:80410EE8       aGlgib
 0001:80410FD8       aCoin_2
 0001:80411094       aGG
 0001:80411188       aSuna
 0001:80411190       aM_dummy_2
 0001:80411260       aCenter_8
 0001:80411268       aLeg_l3
 0001:80411270       aLeg_r3
 0001:80411278       aL_hall
 0001:80411280       aR_hall
 0001:80411288       aFoot_l
 0001:80411290       aFoot_r
 0001:80411580       aVav
 0001:80411614       aMain_2
 0001:80411648       a_mat_1
 0001:804116DC       aMain_3
 0001:8041181C       aMain_4
 0001:80411828       aCenter_1
 0001:804118D0       aCenter_2
 0001:80411944       aCenterz
 0001:80411A7C       aHead
 0001:80411A84       aNeck
 0001:80411B64       aCenter_3
 0001:80411BB8       aMspeed
 0001:80411BF8       aSpeed
 0001:80411C04       aAngle
 0001:80411C10       aRange
 0001:80411C1C       aRadius
 0001:80411CB4       a_body1_0
 0001:80411CF8       a_body1_1
 0001:80411D0C       aKiller_0
 0001:80411E7C       aHead_0
 0001:80411E84       aNeck_0
 0001:80411FAC       aGame_6_0
 0001:80411FB8       aGvguge1
 0001:80412040       aGame_6_1
 0001:80412094       a_23456789ABc
 0001:804120B0       aAa
 0001:804120BC       aLBa
 0001:804120C4       aA_19
 0001:804120CC       aAs
 0001:804120D0       aAl
 0001:804120D8       aC0_0
 0001:804120DC       aA_20
 0001:804120E0       aC4
 0001:804120E8       aC0_1
 0001:804120F0       aA_21
 0001:804120F4       aAr
 0001:804120F8       aA_22
 0001:80412138       aGame_6_2
 0001:80412144       aS
 0001:8041218C       aEndsave
 0001:80412194       aGame_6_3
 0001:804121A0       aV
 0001:804121A4       aK
 0001:804121D8       a_H01
 0001:804121E4       a23456789i
 0001:804121F0       aABcjde
 0001:80412208       aC0_2
 0001:8041220C       aA_23
 0001:80412214       aFffA
 0001:80412268       aOption
 0001:804122F8       aGuide
 0001:80412304       aS_0
 0001:80412348       a_H01_0
 0001:80412354       a23456789i_0
 0001:80412360       aABcjde_0
 0001:80412414       aSelect
 0001:8041249C       aE_0
 0001:804124A8       aF_0
 0001:804124B4       aG
 0001:804124C0       a_H01_1
 0001:804124CC       a23456789i_1
 0001:804124D8       aABcjde_1
 0001:804124E4       aGame_6
 0001:804124EC       aA_24
 0001:804126B0       a_bmg
 0001:804126B8       aS_5
 0001:804126C0       aCnt0A
 0001:8041270C       aOption_0
 0001:80412720       a_bcr
 0001:80412728       aType
 0001:804127A4       a_col
 0001:804127B0       aS_1
 0001:804127B8       aSS_2
 0001:804127C0       aSS_3
 0001:8041285C       aMap_obj
 0001:80412864       aStation
 0001:8041286C       aInside
 0001:80412878       aA_25
 0001:8041287C       aCh
 0001:80412880       aZ
 0001:80412884       aDz
 0001:80412888       aWarpa1
 0001:80412890       aWarpa0
 0001:80412898       aWarpb1
 0001:804128A0       aWarpb0
 0001:804128A8       aWarpc1
 0001:804128B0       aWarpc0
 0001:804128B8       aWarpd1
 0001:804128C0       aWarpd0
 0001:804128C8       aWarpe1
 0001:804128D0       aWarpe0
 0001:804128D8       aWarpf1
 0001:804128E0       aWarpf0
 0001:804128E8       aWarpg1
 0001:804128F0       aWarpg0
 0001:804128F8       aWarph1
 0001:80412900       aWarph0
 0001:80412908       aWarpi1
 0001:80412910       aWarpi0
 0001:8041291C       aA_26
 0001:8041294C       aMs_sea
 0001:80412958       aMapobj_1
 0001:80412A74       aSky_0
 0001:80412B34       aDptking_0
 0001:80412B58       aMareep0
 0001:80412B60       aMareep1
 0001:80412B68       aMareep2
 0001:80412CB4       aRegr
 0001:80412CBC       aRegg
 0001:80412CC4       aRegb
 0001:80412CCC       aRega
 0001:80412CD4       aKregr
 0001:80412CDC       aKregg
 0001:80412CE4       aKregb
 0001:80412CEC       aKrega
 0001:80412CF4       aAlpha
 0001:80412CFC       aScrolls
 0001:80412D04       aMode
 0001:80412D0C       aMask
 0001:80412D28       aGravity
 0001:80412D34       aBouncey
 0001:80412D40       aDamp
 0001:80412D4C       aJump
 0001:80412D58       aEmitvel
 0001:80412DC8       aHideobj
 0001:80412DD8       aDoor
 0001:80412DE8       aManhole
 0001:80412E40       aPile
 0001:80412E90       aA8
 0001:80412EA0       aBucket
 0001:80412EB0       aCoin
 0001:80412EB8       aShine
 0001:80413138       aFlower
 0001:804131C8       aCloud
 0001:80413258       aUmaibou
 0001:804132B0       aGetag
 0001:804132B8       aGetao
 0001:804132C8       aUirou
 0001:804134E8       aWoodbox
 0001:804134F8       aYatai
 0001:80413510       aIce_car
 0001:80413528       aBuoy
 0001:80413540       aDptking
 0001:804135C0       aCrane
 0001:80413618       aTank
 0001:80413800       aBiabell
 0001:80413868       aBiadoor
 0001:80413908       aMirrorl
 0001:80413918       aMirrorm
 0001:80413928       aMirrors
 0001:80413A40       aCoral00
 0001:80413A48       aCoral01
 0001:80413A68       aMerry
 0001:80413AB8       aViking
 0001:80413B60       aAmiking
 0001:80413B68       aCoaster
 0001:80413B80       aRulet00
 0001:80413BA0       aRulet01
 0001:80413BB8       aRulet02
 0001:80413BD8       aDonchou
 0001:80413BE0       aPazul
 0001:80413C30       aCloset
 0001:80413CE8       aUkisima
 0001:80413D18       aMoyasi
 0001:80413D50       aPuncher
 0001:80413D60       aHatopop
 0001:80413DF8       aFluff
 0001:80413E08       aBath
 0001:80413E10       aStand
 0001:80413EA0       FileLoadBlock_map_collision_info
 0001:80413EB8       FileLoadBlockC_anim_info
 0001:80413EC4       aS_bmd
 0001:80413ED0       aMapobj
 0001:80413F20       aCoin_3
 0001:80413F28       aGmgygl
 0001:80413F30       aGrgcgu
 0001:80413F38       aNo_data_0
 0001:80413F40       aUvfiom
 0001:80413FC0       aValid
 0001:80414014       aNormal
 0001:8041401C       aQuickly
 0001:80414064       aGrgcgu_0
 0001:8041406C       aCoin_4
 0001:8041409C       aNormal_0
 0001:804140A4       aWater
 0001:804141D8       a_neon_c
 0001:804141E0       a_neon_b
 0001:804141E8       a_neon_a
 0001:80414210       aPazul_0
 0001:80414250       aDonchou_0
 0001:804142A0       aCoin_5
 0001:804142BC       a_switch
 0001:8041433C       aMirrors_0
 0001:80414344       aMirrorm_0
 0001:8041434C       aMirrorl_0
 0001:80414364       aNone
 0001:80414480       aCenter_4
 0001:80414488       aEgg
 0001:8041448C       aUp
 0001:80414490       aDown
 0001:80414498       aKage_2
 0001:804144AC       aGvgfgl
 0001:8041454C       aCcsf_0
 0001:804145D4       aUvfipu
 0001:80414628       aFlagsun
 0001:804146F8       aUkisima_0
 0001:80414700       aBuoy_0
 0001:8041485C       aNulla_0
 0001:804148F8       aGate
 0001:80414900       aDz_0
 0001:80414904       aA_27
 0001:80414910       aR
 0001:80414920       aA_28
 0001:80414928       aC0_3
 0001:8041492C       aA_29
 0001:80414958       aCenter_5
 0001:804149A4       aBamboo
 0001:804149C0       aMapobj_0
 0001:80414A48       aFluff_0
 0001:80414A58       aVavC
 0001:80414BA0       aCoin_6
 0001:80414BAC       aRedcoin
 0001:80414BB4       aDust
 0001:80414BBC       aNo_data_1
 0001:80414BEC       aGngbgp
 0001:80414C1C       aMario_0
 0001:80414C24       aStar
 0001:80414C2C       aWater4
 0001:80414C34       aWater5
 0001:80414C3C       aWater1
 0001:80414C44       aWater2
 0001:80414C4C       aWater3
 0001:80414C54       aAhiru
 0001:80414C5C       aJr
 0001:80414C60       aKoopa
 0001:80414C68       aBody
 0001:80414CE4       aShake
 0001:80414CF8       aRebound
 0001:80414DC4       aBasket
 0001:80414EC8       aSS_4
 0001:80414FB8       aSD_0
 0001:80414FD8       aKubi
 0001:804150F8       aKubi_0
 0001:804151C4       aEf_null
 0001:804151CC       aKoshi
 0001:804151D4       aKuchi
 0001:80415278       aSetbck
 0001:80415280       aSetbpk
 0001:80415288       aSetbtp
 0001:80415290       aSetbtk
 0001:80415298       aSetblk
 0001:804152A0       aSetbls
 0001:804152A8       aSetsrt
 0001:804152B0       aGetsrt
 0001:804152E8       aSS_5
 0001:804152F0       aSS_6
 0001:80415310       aYield
 0001:80415318       aExit
 0001:80415320       aLock
 0001:80415328       aUnlock
 0001:80415330       aPrint
 0001:80415338       aDump
 0001:80415340       aInt
 0001:80415344       aFloat
 0001:8041534C       aTypeof
 0001:80415354       aD
 0001:80415358       aF
 0001:8041535C       aS_2
 0001:80415368       aSS_7
 0001:80415420       aSS_8
 0001:80415428       aOpa
 0001:8041542C       aXlu
 0001:804154B8       aMacc
 0001:804154CC       aMbrake
 0001:80415658       a_blk
 0001:80415670       a_brk
 0001:80415678       a_bpk
 0001:80415680       a_btk
 0001:80415688       a_btp
 0001:80415690       a_bck
 0001:80415698       a_bck_0
 0001:804156A0       aS_3
 0001:804156A4       a_bpk_0
 0001:804156AC       a_btp_0
 0001:804156B4       a_btk_0
 0001:804156BC       a_brk_0
 0001:804156C4       a_blk_0
 0001:804156CC       aSS_9
 0001:804157B0       aHgup_0
 0001:804157B8       aBdwn_0
 0001:804157C0       aBkdwn_0
 0001:804157C8       aBrake_0
 0001:804157D0       aBrend_0
 0001:804157D8       aHgdwn_0
 0001:804157E0       aFjpend_0
 0001:804157E8       aFirejmp_0
 0001:804157F0       aSdwnf_0
 0001:804157F8       aJfdwn_0
 0001:80415800       aHang_0
 0001:80415808       aHgjmp_0
 0001:80415810       aHiped_0
 0001:80415818       aHipsr_0
 0001:80415820       aHipat_0
 0001:80415828       aRun1_0
 0001:80415830       a2jmed_0
 0001:80415838       a2jmp2_0
 0001:80415840       aJump_1
 0001:80415848       aJmped_0
 0001:80415850       a2jmp1_0
 0001:80415858       aLand_0
 0001:80415860       aLaend_0
 0001:80415868       aLost_0
 0001:80415870       aThrow_0
 0001:80415878       aRaise_0
 0001:80415880       aPush_0
 0001:80415888       aPut_0
 0001:8041588C       aRoll_0
 0001:80415894       aRun2_0
 0001:8041589C       aShock_0
 0001:804158A4       aSfbdn_0
 0001:804158AC       aSffdn_0
 0001:804158B4       aSdown_0
 0001:804158BC       aShfdn_0
 0001:804158C4       aSwait_0
 0001:804158CC       aSwlkl_0
 0001:804158D4       aSwlkr_0
 0001:804158DC       aSldct_0
 0001:804158E4       aSlpbk_0
 0001:804158EC       aSldwn_0
 0001:804158F4       aSlped_0
 0001:804158FC       aSlpla_0
 0001:80415904       aSlip_0
 0001:8041590C       aSstep_0
 0001:80415914       aSqend_0
 0001:8041591C       aSqsta_0
 0001:80415924       aSqwat_0
 0001:8041592C       aTurn_0
 0001:80415934       aTrned_0
 0001:8041593C       aTjmp2_0
 0001:80415944       aTjmp1_0
 0001:8041594C       aWait_0
 0001:80415954       aWalk_0
 0001:8041595C       aWjmp_0
 0001:80415964       aWsld_0
 0001:8041596C       aPump_0
 0001:80415974       aHgpmp_0
 0001:8041597C       aStep1_0
 0001:80415984       aStep2_0
 0001:8041598C       aStep3_0
 0001:80415994       aJkick_0
 0001:8041599C       aDgrun_0
 0001:804159A4       aCarry_p_0
 0001:804159AC       aHmov_l_0
 0001:804159B4       aHmov_r_0
 0001:804159BC       aT_wait_0
 0001:804159C4       aSinking_0
 0001:804159CC       aHold_0
 0001:804159D4       aSpin_p_0
 0001:804159DC       aSwim_0
 0001:804159E4       aDie_0
 0001:804159E8       aFloat_1
 0001:804159F0       aFepmp_0
 0001:804159F8       aSwpmp_0
 0001:80415A00       aThrown_0
 0001:80415A08       aDraw_0
 0001:80415A10       aPivot_0
 0001:80415A18       aBelt_up_0
 0001:80415A20       aYawn_0
 0001:80415A28       aSit_0
 0001:80415A2C       aSit_end_0
 0001:80415A34       aSleep_0
 0001:80415A3C       aYo_wait_0
 0001:80415A44       aYo_walk_0
 0001:80415A4C       aYo_run_0
 0001:80415A54       aYo_eat_0
 0001:80415A5C       aYo_jump_0
 0001:80415A64       aYo_ride_0
 0001:80415ACC       aCenter_6
 0001:80415AD4       aM_head_0
 0001:80415ADC       aMario_1
 0001:80415FAC       aWg_pump
 0001:80415FD8       aBack_wg
 0001:80415FF0       aMnum
 0001:80415FF8       aMattack
 0001:80416008       aMsize
 0001:8041601C       aMnummin
 0001:80416034       aMtype
 0001:80416078       aYoshi
 0001:80416080       aCenter_7
 0001:80416110       aMxmin
 0001:8041611C       aMxmax
 0001:80416138       aMdamage
 0001:80416140       aMmotor
 0001:8041614C       aMdirty
 0001:80416158       aMrotsp
 0001:80416174       aMbrake_0
 0001:80416180       aMrotmin
 0001:8041618C       aMrotmax
 0001:80416198       aMpowmin
 0001:804161A4       aMpowmax
 0001:804161B0       aMaccel
 0001:804161C4       aMroll
 0001:804161D0       aMpitch
 0001:80416268       aMmovesp
 0001:80416274       aMrush
 0001:80416280       aMairdec
 0001:80416288       aMairinc
 0001:804162C4       aMradius
 0001:804162CC       aMheight
 0001:804162D8       aMhpmax
 0001:80416414       aMalive
 0001:80416428       aMnum_0
 0001:80416430       aMattack_0
 0001:80416438       aMdir
 0001:80416440       aMpos
 0001:80416448       aMv
 0001:8041644C       aMpow
 0001:80416454       aMsize_0
 0001:80416460       aMflag
 0001:80416468       aMtype_0
 0001:80416508       aGettime
 0001:80416510       aStopbgm
 0001:80416518       aStartse
 0001:804165A0       aMario_2
 0001:804165A8       aGGkgi
 0001:804165C0       aGuide_0
 0001:804165D0       aGuide_1
 0001:804165F0       aGuide_2
 0001:804165F8       aNzrm3
 0001:80416640       aGGbgv
 0001:80416648       aOption_1
 0001:80416650       aGame_6_4
 0001:80416658       aGuide_3
 0001:80416660       aYoshi_0
 0001:80416668       aScene_0
 0001:80416670       aGGkgi_0
 0001:80416680       aTalk2d
 0001:80416688       aMario_3
 0001:80416690       aMlight
 0001:8041669C       aGuide_4
 0001:804166A4       aGuide_5
 0001:804166B0       aUIX
 0001:804166D4       aBeach6
 0001:804166DC       aBeach7
 0001:804166E4       aHotel4
 0001:804166EC       aBoss
 0001:804166F4       aParkD
 0001:804166FC       aPark6
 0001:80416704       aPark7
 0001:8041670C       aBeach4
 0001:80416714       aBoss0
 0001:8041671C       aBoss1
 0001:80416724       aDemo0
 0001:8041672C       aDemo1
 0001:80416734       aNokiD
 0001:8041673C       aS_4
 0001:80416740       a02dS
 0001:80416760       aTitle
 0001:8041676C       aParams
 0001:80416774       aScene_1
 0001:8041678C       a_arc
 0001:80416794       a_szs
 0001:804167C8       aFont
 0001:804167D0       aAudi
 0001:80416818       aEmario
 0001:80416828       aBosseel
 0001:80416830       aKoopa_0
 0001:80416838       aGngbgp_0
 0001:80416840       aKoopajr
 0001:80416848       aOilball
 0001:80416858       aUtmUg_0
 0001:80416860       aGtgbgn
 0001:8041686C       aBeehive
 0001:80416874       aTV
 0001:8041687C       aTVa
 0001:80416884       aTVb
 0001:80416890       aPakkun
 0001:80416898       aPopo
 0001:804168A0       aGG_0
 0001:804168A8       aGesso
 0001:804168B0       aTelesa
 0001:804168B8       aGegmgt_0
 0001:804168C0       aPoihana
 0001:804168C8       aMoepuku
 0001:804168D0       aRocket
 0001:804168D8       aYumbo
 0001:804168E0       aGjgug
 0001:804168E8       aCannon
 0001:804168F0       aCcsf_1
 0001:804168F8       aBombhei
 0001:80416900       aGGax_0
 0001:80416908       aKiller_1
 0001:80416910       aGlgib_0
 0001:80416918       aAminoko
 0001:80416920       aGvbGl
 0001:80416928       aKukku
 0001:80416930       aGngbgn
 0001:80416938       aKumokun
 0001:80416940       aAmenbo
 0001:80416948       aKazekun
 0001:80416958       aMap
 0001:8041695C       aGGbgv_0
 0001:80416964       aSky
 0001:8041696C       aShimmer
 0001:80416974       aSunmgr
 0001:80416980       aItem
 0001:80416988       aFruit
 0001:8041699C       aKtxC
 0001:804169A4       aNXC
 0001:804169AC       aSrkCa
 0001:804169B4       aNxim
 0001:804169C0       aKF
 0001:804169C8       aCTm
 0001:804169D0       aDoor_0
 0001:804169D8       aGhga
 0001:804169E0       aFence
 0001:804169EC       aGBGl
 0001:804169F4       aManhole_0
 0001:804169FC       aPool
 0001:80416A04       aRep
 0001:80416A18       aPalm
 0001:80416A20       aWoodbox_0
 0001:80416A28       aCFa
 0001:80416A30       aIcecar
 0001:80416A38       aKS
 0001:80416A40       aBiabell_0
 0001:80416A48       aSCzr
 0001:80416A50       aNVPs
 0001:80416A58       aSandegg
 0001:80416A60       aKCco
 0001:80416A68       aViking_0
 0001:80416A70       aAmiking_0
 0001:80416A78       aUvfi
 0001:80416A80       aPuncher_0
 0001:80416A88       aCloset_0
 0001:80416A90       aDonchou_1
 0001:80416AA0       aNkvV
 0001:80416AA8       aVVsl
 0001:80416AB0       aBathtub
 0001:80416AB8       aIUof
 0001:80416AC0       aUmaibou_0
 0001:80416AD0       aUirou_0
 0001:80416AD8       aVnvm
 0001:80416AE0       aCoin_7
 0001:80416AE8       aGrgcgu_1
 0001:80416AF0       aCoinred
 0001:80416AF8       aHideobj_0
 0001:80416B00       aShine_0
 0001:80416B08       aGmgygl_0
 0001:80416B44       aEndsave_0
 0001:80416B4C       aData
 0001:80416B80       aParams_0
 0001:80416B88       aNzrm3_0
 0001:80416BA0       TOC
 0001:80416BF8       aNone_0
 0001:80416C00       aTemp
 0001:80416C08       aAlloc
 0001:80416C10       aFree_0
 0001:80416C30       aAbort
 0001:80416C50       aProgram
 0001:80416C58       aTrace_0
 0001:80416C70       a_map
 0001:80416F00       aAbort_
 0001:80416F08       aAbort_0
 0001:80416FC8       aLight
 0001:80416FD0       aLight_0
 0001:80416FDC       aAmbary_0
 0001:80417058       aSSC
 0001:80417138       aBanks_0
 0001:80417140       aSeqs
 0001:80417148       aStream
 0001:80417228       aSfr_dsp
 0001:804172A8       aDspmix
 0001:804172B0       aMixing
 0001:80417D30       def_80417CA8
 0001:80418384       nullsub_14
 0001:80418388       jpt_80417CA8
 0001:804183BC       aDDDDDXXX

Program entry point at 0001:0000211C
